
../individual_project/mem_align/mem_align_functions_test_32_512:     file format elf64-x86-64


Disassembly of section .init:

0000000000001000 <_init>:
    1000:	f3 0f 1e fa          	endbr64 
    1004:	48 83 ec 08          	sub    rsp,0x8
    1008:	48 8b 05 d9 6f 00 00 	mov    rax,QWORD PTR [rip+0x6fd9]        # 7fe8 <__gmon_start__>
    100f:	48 85 c0             	test   rax,rax
    1012:	74 02                	je     1016 <_init+0x16>
    1014:	ff d0                	call   rax
    1016:	48 83 c4 08          	add    rsp,0x8
    101a:	c3                   	ret    

Disassembly of section .plt:

0000000000001020 <.plt>:
    1020:	ff 35 8a 6f 00 00    	push   QWORD PTR [rip+0x6f8a]        # 7fb0 <_GLOBAL_OFFSET_TABLE_+0x8>
    1026:	f2 ff 25 8b 6f 00 00 	bnd jmp QWORD PTR [rip+0x6f8b]        # 7fb8 <_GLOBAL_OFFSET_TABLE_+0x10>
    102d:	0f 1f 00             	nop    DWORD PTR [rax]
    1030:	f3 0f 1e fa          	endbr64 
    1034:	68 00 00 00 00       	push   0x0
    1039:	f2 e9 e1 ff ff ff    	bnd jmp 1020 <.plt>
    103f:	90                   	nop
    1040:	f3 0f 1e fa          	endbr64 
    1044:	68 01 00 00 00       	push   0x1
    1049:	f2 e9 d1 ff ff ff    	bnd jmp 1020 <.plt>
    104f:	90                   	nop

Disassembly of section .plt.got:

0000000000001050 <__cxa_finalize@plt>:
    1050:	f3 0f 1e fa          	endbr64 
    1054:	f2 ff 25 75 6f 00 00 	bnd jmp QWORD PTR [rip+0x6f75]        # 7fd0 <__cxa_finalize@GLIBC_2.2.5>
    105b:	0f 1f 44 00 00       	nop    DWORD PTR [rax+rax*1+0x0]

Disassembly of section .plt.sec:

0000000000001060 <__cxa_atexit@plt>:
    1060:	f3 0f 1e fa          	endbr64 
    1064:	f2 ff 25 55 6f 00 00 	bnd jmp QWORD PTR [rip+0x6f55]        # 7fc0 <__cxa_atexit@GLIBC_2.2.5>
    106b:	0f 1f 44 00 00       	nop    DWORD PTR [rax+rax*1+0x0]

0000000000001070 <std::ios_base::Init::Init()@plt>:
    1070:	f3 0f 1e fa          	endbr64 
    1074:	f2 ff 25 4d 6f 00 00 	bnd jmp QWORD PTR [rip+0x6f4d]        # 7fc8 <std::ios_base::Init::Init()@GLIBCXX_3.4>
    107b:	0f 1f 44 00 00       	nop    DWORD PTR [rax+rax*1+0x0]

Disassembly of section .text:

0000000000001200 <_start>:
    1200:	f3 0f 1e fa          	endbr64 
    1204:	31 ed                	xor    ebp,ebp
    1206:	49 89 d1             	mov    r9,rdx
    1209:	5e                   	pop    rsi
    120a:	48 89 e2             	mov    rdx,rsp
    120d:	48 83 e4 f0          	and    rsp,0xfffffffffffffff0
    1211:	50                   	push   rax
    1212:	54                   	push   rsp
    1213:	4c 8d 05 76 46 00 00 	lea    r8,[rip+0x4676]        # 5890 <__libc_csu_fini>
    121a:	48 8d 0d ff 45 00 00 	lea    rcx,[rip+0x45ff]        # 5820 <__libc_csu_init>
    1221:	48 8d 3d d8 41 00 00 	lea    rdi,[rip+0x41d8]        # 5400 <main>
    1228:	ff 15 b2 6d 00 00    	call   QWORD PTR [rip+0x6db2]        # 7fe0 <__libc_start_main@GLIBC_2.2.5>
    122e:	f4                   	hlt    
    122f:	90                   	nop

0000000000001230 <deregister_tm_clones>:
    1230:	48 8d 3d d9 6d 00 00 	lea    rdi,[rip+0x6dd9]        # 8010 <__TMC_END__>
    1237:	48 8d 05 d2 6d 00 00 	lea    rax,[rip+0x6dd2]        # 8010 <__TMC_END__>
    123e:	48 39 f8             	cmp    rax,rdi
    1241:	74 15                	je     1258 <deregister_tm_clones+0x28>
    1243:	48 8b 05 8e 6d 00 00 	mov    rax,QWORD PTR [rip+0x6d8e]        # 7fd8 <_ITM_deregisterTMCloneTable>
    124a:	48 85 c0             	test   rax,rax
    124d:	74 09                	je     1258 <deregister_tm_clones+0x28>
    124f:	ff e0                	jmp    rax
    1251:	0f 1f 80 00 00 00 00 	nop    DWORD PTR [rax+0x0]
    1258:	c3                   	ret    
    1259:	0f 1f 80 00 00 00 00 	nop    DWORD PTR [rax+0x0]

0000000000001260 <register_tm_clones>:
    1260:	48 8d 3d a9 6d 00 00 	lea    rdi,[rip+0x6da9]        # 8010 <__TMC_END__>
    1267:	48 8d 35 a2 6d 00 00 	lea    rsi,[rip+0x6da2]        # 8010 <__TMC_END__>
    126e:	48 29 fe             	sub    rsi,rdi
    1271:	48 89 f0             	mov    rax,rsi
    1274:	48 c1 ee 3f          	shr    rsi,0x3f
    1278:	48 c1 f8 03          	sar    rax,0x3
    127c:	48 01 c6             	add    rsi,rax
    127f:	48 d1 fe             	sar    rsi,1
    1282:	74 14                	je     1298 <register_tm_clones+0x38>
    1284:	48 8b 05 65 6d 00 00 	mov    rax,QWORD PTR [rip+0x6d65]        # 7ff0 <_ITM_registerTMCloneTable>
    128b:	48 85 c0             	test   rax,rax
    128e:	74 08                	je     1298 <register_tm_clones+0x38>
    1290:	ff e0                	jmp    rax
    1292:	66 0f 1f 44 00 00    	nop    WORD PTR [rax+rax*1+0x0]
    1298:	c3                   	ret    
    1299:	0f 1f 80 00 00 00 00 	nop    DWORD PTR [rax+0x0]

00000000000012a0 <__do_global_dtors_aux>:
    12a0:	f3 0f 1e fa          	endbr64 
    12a4:	80 3d 65 6d 00 00 00 	cmp    BYTE PTR [rip+0x6d65],0x0        # 8010 <__TMC_END__>
    12ab:	75 2b                	jne    12d8 <__do_global_dtors_aux+0x38>
    12ad:	55                   	push   rbp
    12ae:	48 83 3d 1a 6d 00 00 	cmp    QWORD PTR [rip+0x6d1a],0x0        # 7fd0 <__cxa_finalize@GLIBC_2.2.5>
    12b5:	00 
    12b6:	48 89 e5             	mov    rbp,rsp
    12b9:	74 0c                	je     12c7 <__do_global_dtors_aux+0x27>
    12bb:	48 8b 3d 46 6d 00 00 	mov    rdi,QWORD PTR [rip+0x6d46]        # 8008 <__dso_handle>
    12c2:	e8 89 fd ff ff       	call   1050 <__cxa_finalize@plt>
    12c7:	e8 64 ff ff ff       	call   1230 <deregister_tm_clones>
    12cc:	c6 05 3d 6d 00 00 01 	mov    BYTE PTR [rip+0x6d3d],0x1        # 8010 <__TMC_END__>
    12d3:	5d                   	pop    rbp
    12d4:	c3                   	ret    
    12d5:	0f 1f 00             	nop    DWORD PTR [rax]
    12d8:	c3                   	ret    
    12d9:	0f 1f 80 00 00 00 00 	nop    DWORD PTR [rax+0x0]

00000000000012e0 <frame_dummy>:
    12e0:	f3 0f 1e fa          	endbr64 
    12e4:	e9 77 ff ff ff       	jmp    1260 <register_tm_clones>
    12e9:	66 2e 0f 1f 84 00 00 	nop    WORD PTR cs:[rax+rax*1+0x0]
    12f0:	00 00 00 
    12f3:	66 2e 0f 1f 84 00 00 	nop    WORD PTR cs:[rax+rax*1+0x0]
    12fa:	00 00 00 
    12fd:	66 2e 0f 1f 84 00 00 	nop    WORD PTR cs:[rax+rax*1+0x0]
    1304:	00 00 00 
    1307:	66 2e 0f 1f 84 00 00 	nop    WORD PTR cs:[rax+rax*1+0x0]
    130e:	00 00 00 
    1311:	66 2e 0f 1f 84 00 00 	nop    WORD PTR cs:[rax+rax*1+0x0]
    1318:	00 00 00 
    131b:	66 2e 0f 1f 84 00 00 	nop    WORD PTR cs:[rax+rax*1+0x0]
    1322:	00 00 00 
    1325:	66 2e 0f 1f 84 00 00 	nop    WORD PTR cs:[rax+rax*1+0x0]
    132c:	00 00 00 
    132f:	66 2e 0f 1f 84 00 00 	nop    WORD PTR cs:[rax+rax*1+0x0]
    1336:	00 00 00 
    1339:	66 2e 0f 1f 84 00 00 	nop    WORD PTR cs:[rax+rax*1+0x0]
    1340:	00 00 00 
    1343:	66 2e 0f 1f 84 00 00 	nop    WORD PTR cs:[rax+rax*1+0x0]
    134a:	00 00 00 
    134d:	66 2e 0f 1f 84 00 00 	nop    WORD PTR cs:[rax+rax*1+0x0]
    1354:	00 00 00 
    1357:	66 2e 0f 1f 84 00 00 	nop    WORD PTR cs:[rax+rax*1+0x0]
    135e:	00 00 00 
    1361:	66 2e 0f 1f 84 00 00 	nop    WORD PTR cs:[rax+rax*1+0x0]
    1368:	00 00 00 
    136b:	66 2e 0f 1f 84 00 00 	nop    WORD PTR cs:[rax+rax*1+0x0]
    1372:	00 00 00 
    1375:	66 2e 0f 1f 84 00 00 	nop    WORD PTR cs:[rax+rax*1+0x0]
    137c:	00 00 00 
    137f:	66 2e 0f 1f 84 00 00 	nop    WORD PTR cs:[rax+rax*1+0x0]
    1386:	00 00 00 
    1389:	66 2e 0f 1f 84 00 00 	nop    WORD PTR cs:[rax+rax*1+0x0]
    1390:	00 00 00 
    1393:	66 2e 0f 1f 84 00 00 	nop    WORD PTR cs:[rax+rax*1+0x0]
    139a:	00 00 00 
    139d:	66 2e 0f 1f 84 00 00 	nop    WORD PTR cs:[rax+rax*1+0x0]
    13a4:	00 00 00 
    13a7:	66 2e 0f 1f 84 00 00 	nop    WORD PTR cs:[rax+rax*1+0x0]
    13ae:	00 00 00 
    13b1:	66 2e 0f 1f 84 00 00 	nop    WORD PTR cs:[rax+rax*1+0x0]
    13b8:	00 00 00 
    13bb:	66 2e 0f 1f 84 00 00 	nop    WORD PTR cs:[rax+rax*1+0x0]
    13c2:	00 00 00 
    13c5:	66 2e 0f 1f 84 00 00 	nop    WORD PTR cs:[rax+rax*1+0x0]
    13cc:	00 00 00 
    13cf:	66 2e 0f 1f 84 00 00 	nop    WORD PTR cs:[rax+rax*1+0x0]
    13d6:	00 00 00 
    13d9:	66 2e 0f 1f 84 00 00 	nop    WORD PTR cs:[rax+rax*1+0x0]
    13e0:	00 00 00 
    13e3:	66 2e 0f 1f 84 00 00 	nop    WORD PTR cs:[rax+rax*1+0x0]
    13ea:	00 00 00 
    13ed:	66 2e 0f 1f 84 00 00 	nop    WORD PTR cs:[rax+rax*1+0x0]
    13f4:	00 00 00 
    13f7:	66 0f 1f 84 00 00 00 	nop    WORD PTR [rax+rax*1+0x0]
    13fe:	00 00 

0000000000001400 <function_1()>:

#define NUM_FUNCTIONS 32
#define NUM_CALLS 1024

void function_1()
{
    1400:	f3 0f 1e fa          	endbr64 
    1404:	55                   	push   rbp
    1405:	48 89 e5             	mov    rbp,rsp
    int i = 0;
    1408:	c7 45 fc 00 00 00 00 	mov    DWORD PTR [rbp-0x4],0x0
    for (int j = 0; j < 10; j++)
    140f:	c7 45 f8 00 00 00 00 	mov    DWORD PTR [rbp-0x8],0x0
    1416:	83 7d f8 09          	cmp    DWORD PTR [rbp-0x8],0x9
    141a:	7f 0f                	jg     142b <function_1()+0x2b>
    {
        i = j + 1;
    141c:	8b 45 f8             	mov    eax,DWORD PTR [rbp-0x8]
    141f:	83 c0 01             	add    eax,0x1
    1422:	89 45 fc             	mov    DWORD PTR [rbp-0x4],eax
    for (int j = 0; j < 10; j++)
    1425:	83 45 f8 01          	add    DWORD PTR [rbp-0x8],0x1
    1429:	eb eb                	jmp    1416 <function_1()+0x16>
    }
}
    142b:	90                   	nop
    142c:	5d                   	pop    rbp
    142d:	c3                   	ret    
    142e:	e9 cd 01 00 00       	jmp    1600 <function_2()>
    1433:	66 66 2e 0f 1f 84 00 	data16 nop WORD PTR cs:[rax+rax*1+0x0]
    143a:	00 00 00 00 
    143e:	66 66 2e 0f 1f 84 00 	data16 nop WORD PTR cs:[rax+rax*1+0x0]
    1445:	00 00 00 00 
    1449:	66 66 2e 0f 1f 84 00 	data16 nop WORD PTR cs:[rax+rax*1+0x0]
    1450:	00 00 00 00 
    1454:	66 66 2e 0f 1f 84 00 	data16 nop WORD PTR cs:[rax+rax*1+0x0]
    145b:	00 00 00 00 
    145f:	66 66 2e 0f 1f 84 00 	data16 nop WORD PTR cs:[rax+rax*1+0x0]
    1466:	00 00 00 00 
    146a:	66 66 2e 0f 1f 84 00 	data16 nop WORD PTR cs:[rax+rax*1+0x0]
    1471:	00 00 00 00 
    1475:	66 66 2e 0f 1f 84 00 	data16 nop WORD PTR cs:[rax+rax*1+0x0]
    147c:	00 00 00 00 
    1480:	66 66 2e 0f 1f 84 00 	data16 nop WORD PTR cs:[rax+rax*1+0x0]
    1487:	00 00 00 00 
    148b:	66 66 2e 0f 1f 84 00 	data16 nop WORD PTR cs:[rax+rax*1+0x0]
    1492:	00 00 00 00 
    1496:	66 66 2e 0f 1f 84 00 	data16 nop WORD PTR cs:[rax+rax*1+0x0]
    149d:	00 00 00 00 
    14a1:	66 66 2e 0f 1f 84 00 	data16 nop WORD PTR cs:[rax+rax*1+0x0]
    14a8:	00 00 00 00 
    14ac:	66 66 2e 0f 1f 84 00 	data16 nop WORD PTR cs:[rax+rax*1+0x0]
    14b3:	00 00 00 00 
    14b7:	66 66 2e 0f 1f 84 00 	data16 nop WORD PTR cs:[rax+rax*1+0x0]
    14be:	00 00 00 00 
    14c2:	66 66 2e 0f 1f 84 00 	data16 nop WORD PTR cs:[rax+rax*1+0x0]
    14c9:	00 00 00 00 
    14cd:	66 66 2e 0f 1f 84 00 	data16 nop WORD PTR cs:[rax+rax*1+0x0]
    14d4:	00 00 00 00 
    14d8:	66 66 2e 0f 1f 84 00 	data16 nop WORD PTR cs:[rax+rax*1+0x0]
    14df:	00 00 00 00 
    14e3:	66 66 2e 0f 1f 84 00 	data16 nop WORD PTR cs:[rax+rax*1+0x0]
    14ea:	00 00 00 00 
    14ee:	66 66 2e 0f 1f 84 00 	data16 nop WORD PTR cs:[rax+rax*1+0x0]
    14f5:	00 00 00 00 
    14f9:	66 66 2e 0f 1f 84 00 	data16 nop WORD PTR cs:[rax+rax*1+0x0]
    1500:	00 00 00 00 
    1504:	66 66 2e 0f 1f 84 00 	data16 nop WORD PTR cs:[rax+rax*1+0x0]
    150b:	00 00 00 00 
    150f:	66 66 2e 0f 1f 84 00 	data16 nop WORD PTR cs:[rax+rax*1+0x0]
    1516:	00 00 00 00 
    151a:	66 66 2e 0f 1f 84 00 	data16 nop WORD PTR cs:[rax+rax*1+0x0]
    1521:	00 00 00 00 
    1525:	66 66 2e 0f 1f 84 00 	data16 nop WORD PTR cs:[rax+rax*1+0x0]
    152c:	00 00 00 00 
    1530:	66 66 2e 0f 1f 84 00 	data16 nop WORD PTR cs:[rax+rax*1+0x0]
    1537:	00 00 00 00 
    153b:	66 66 2e 0f 1f 84 00 	data16 nop WORD PTR cs:[rax+rax*1+0x0]
    1542:	00 00 00 00 
    1546:	66 66 2e 0f 1f 84 00 	data16 nop WORD PTR cs:[rax+rax*1+0x0]
    154d:	00 00 00 00 
    1551:	66 66 2e 0f 1f 84 00 	data16 nop WORD PTR cs:[rax+rax*1+0x0]
    1558:	00 00 00 00 
    155c:	66 66 2e 0f 1f 84 00 	data16 nop WORD PTR cs:[rax+rax*1+0x0]
    1563:	00 00 00 00 
    1567:	66 66 2e 0f 1f 84 00 	data16 nop WORD PTR cs:[rax+rax*1+0x0]
    156e:	00 00 00 00 
    1572:	66 66 2e 0f 1f 84 00 	data16 nop WORD PTR cs:[rax+rax*1+0x0]
    1579:	00 00 00 00 
    157d:	66 66 2e 0f 1f 84 00 	data16 nop WORD PTR cs:[rax+rax*1+0x0]
    1584:	00 00 00 00 
    1588:	66 66 2e 0f 1f 84 00 	data16 nop WORD PTR cs:[rax+rax*1+0x0]
    158f:	00 00 00 00 
    1593:	66 66 2e 0f 1f 84 00 	data16 nop WORD PTR cs:[rax+rax*1+0x0]
    159a:	00 00 00 00 
    159e:	66 66 2e 0f 1f 84 00 	data16 nop WORD PTR cs:[rax+rax*1+0x0]
    15a5:	00 00 00 00 
    15a9:	66 66 2e 0f 1f 84 00 	data16 nop WORD PTR cs:[rax+rax*1+0x0]
    15b0:	00 00 00 00 
    15b4:	66 66 2e 0f 1f 84 00 	data16 nop WORD PTR cs:[rax+rax*1+0x0]
    15bb:	00 00 00 00 
    15bf:	66 66 2e 0f 1f 84 00 	data16 nop WORD PTR cs:[rax+rax*1+0x0]
    15c6:	00 00 00 00 
    15ca:	66 66 2e 0f 1f 84 00 	data16 nop WORD PTR cs:[rax+rax*1+0x0]
    15d1:	00 00 00 00 
    15d5:	66 66 2e 0f 1f 84 00 	data16 nop WORD PTR cs:[rax+rax*1+0x0]
    15dc:	00 00 00 00 
    15e0:	66 66 2e 0f 1f 84 00 	data16 nop WORD PTR cs:[rax+rax*1+0x0]
    15e7:	00 00 00 00 
    15eb:	66 66 2e 0f 1f 84 00 	data16 nop WORD PTR cs:[rax+rax*1+0x0]
    15f2:	00 00 00 00 
    15f6:	66 2e 0f 1f 84 00 00 	nop    WORD PTR cs:[rax+rax*1+0x0]
    15fd:	00 00 00 

0000000000001600 <function_2()>:

void function_2()
{
    1600:	f3 0f 1e fa          	endbr64 
    1604:	55                   	push   rbp
    1605:	48 89 e5             	mov    rbp,rsp
    int i = 0;
    1608:	c7 45 fc 00 00 00 00 	mov    DWORD PTR [rbp-0x4],0x0
    for (int j = 0; j < 10; j++)
    160f:	c7 45 f8 00 00 00 00 	mov    DWORD PTR [rbp-0x8],0x0
    1616:	83 7d f8 09          	cmp    DWORD PTR [rbp-0x8],0x9
    161a:	7f 0f                	jg     162b <function_2()+0x2b>
    {
        i = j + 1;
    161c:	8b 45 f8             	mov    eax,DWORD PTR [rbp-0x8]
    161f:	83 c0 01             	add    eax,0x1
    1622:	89 45 fc             	mov    DWORD PTR [rbp-0x4],eax
    for (int j = 0; j < 10; j++)
    1625:	83 45 f8 01          	add    DWORD PTR [rbp-0x8],0x1
    1629:	eb eb                	jmp    1616 <function_2()+0x16>
    }
}
    162b:	90                   	nop
    162c:	5d                   	pop    rbp
    162d:	c3                   	ret    
    162e:	e9 cd 01 00 00       	jmp    1800 <function_3()>
    1633:	66 66 2e 0f 1f 84 00 	data16 nop WORD PTR cs:[rax+rax*1+0x0]
    163a:	00 00 00 00 
    163e:	66 66 2e 0f 1f 84 00 	data16 nop WORD PTR cs:[rax+rax*1+0x0]
    1645:	00 00 00 00 
    1649:	66 66 2e 0f 1f 84 00 	data16 nop WORD PTR cs:[rax+rax*1+0x0]
    1650:	00 00 00 00 
    1654:	66 66 2e 0f 1f 84 00 	data16 nop WORD PTR cs:[rax+rax*1+0x0]
    165b:	00 00 00 00 
    165f:	66 66 2e 0f 1f 84 00 	data16 nop WORD PTR cs:[rax+rax*1+0x0]
    1666:	00 00 00 00 
    166a:	66 66 2e 0f 1f 84 00 	data16 nop WORD PTR cs:[rax+rax*1+0x0]
    1671:	00 00 00 00 
    1675:	66 66 2e 0f 1f 84 00 	data16 nop WORD PTR cs:[rax+rax*1+0x0]
    167c:	00 00 00 00 
    1680:	66 66 2e 0f 1f 84 00 	data16 nop WORD PTR cs:[rax+rax*1+0x0]
    1687:	00 00 00 00 
    168b:	66 66 2e 0f 1f 84 00 	data16 nop WORD PTR cs:[rax+rax*1+0x0]
    1692:	00 00 00 00 
    1696:	66 66 2e 0f 1f 84 00 	data16 nop WORD PTR cs:[rax+rax*1+0x0]
    169d:	00 00 00 00 
    16a1:	66 66 2e 0f 1f 84 00 	data16 nop WORD PTR cs:[rax+rax*1+0x0]
    16a8:	00 00 00 00 
    16ac:	66 66 2e 0f 1f 84 00 	data16 nop WORD PTR cs:[rax+rax*1+0x0]
    16b3:	00 00 00 00 
    16b7:	66 66 2e 0f 1f 84 00 	data16 nop WORD PTR cs:[rax+rax*1+0x0]
    16be:	00 00 00 00 
    16c2:	66 66 2e 0f 1f 84 00 	data16 nop WORD PTR cs:[rax+rax*1+0x0]
    16c9:	00 00 00 00 
    16cd:	66 66 2e 0f 1f 84 00 	data16 nop WORD PTR cs:[rax+rax*1+0x0]
    16d4:	00 00 00 00 
    16d8:	66 66 2e 0f 1f 84 00 	data16 nop WORD PTR cs:[rax+rax*1+0x0]
    16df:	00 00 00 00 
    16e3:	66 66 2e 0f 1f 84 00 	data16 nop WORD PTR cs:[rax+rax*1+0x0]
    16ea:	00 00 00 00 
    16ee:	66 66 2e 0f 1f 84 00 	data16 nop WORD PTR cs:[rax+rax*1+0x0]
    16f5:	00 00 00 00 
    16f9:	66 66 2e 0f 1f 84 00 	data16 nop WORD PTR cs:[rax+rax*1+0x0]
    1700:	00 00 00 00 
    1704:	66 66 2e 0f 1f 84 00 	data16 nop WORD PTR cs:[rax+rax*1+0x0]
    170b:	00 00 00 00 
    170f:	66 66 2e 0f 1f 84 00 	data16 nop WORD PTR cs:[rax+rax*1+0x0]
    1716:	00 00 00 00 
    171a:	66 66 2e 0f 1f 84 00 	data16 nop WORD PTR cs:[rax+rax*1+0x0]
    1721:	00 00 00 00 
    1725:	66 66 2e 0f 1f 84 00 	data16 nop WORD PTR cs:[rax+rax*1+0x0]
    172c:	00 00 00 00 
    1730:	66 66 2e 0f 1f 84 00 	data16 nop WORD PTR cs:[rax+rax*1+0x0]
    1737:	00 00 00 00 
    173b:	66 66 2e 0f 1f 84 00 	data16 nop WORD PTR cs:[rax+rax*1+0x0]
    1742:	00 00 00 00 
    1746:	66 66 2e 0f 1f 84 00 	data16 nop WORD PTR cs:[rax+rax*1+0x0]
    174d:	00 00 00 00 
    1751:	66 66 2e 0f 1f 84 00 	data16 nop WORD PTR cs:[rax+rax*1+0x0]
    1758:	00 00 00 00 
    175c:	66 66 2e 0f 1f 84 00 	data16 nop WORD PTR cs:[rax+rax*1+0x0]
    1763:	00 00 00 00 
    1767:	66 66 2e 0f 1f 84 00 	data16 nop WORD PTR cs:[rax+rax*1+0x0]
    176e:	00 00 00 00 
    1772:	66 66 2e 0f 1f 84 00 	data16 nop WORD PTR cs:[rax+rax*1+0x0]
    1779:	00 00 00 00 
    177d:	66 66 2e 0f 1f 84 00 	data16 nop WORD PTR cs:[rax+rax*1+0x0]
    1784:	00 00 00 00 
    1788:	66 66 2e 0f 1f 84 00 	data16 nop WORD PTR cs:[rax+rax*1+0x0]
    178f:	00 00 00 00 
    1793:	66 66 2e 0f 1f 84 00 	data16 nop WORD PTR cs:[rax+rax*1+0x0]
    179a:	00 00 00 00 
    179e:	66 66 2e 0f 1f 84 00 	data16 nop WORD PTR cs:[rax+rax*1+0x0]
    17a5:	00 00 00 00 
    17a9:	66 66 2e 0f 1f 84 00 	data16 nop WORD PTR cs:[rax+rax*1+0x0]
    17b0:	00 00 00 00 
    17b4:	66 66 2e 0f 1f 84 00 	data16 nop WORD PTR cs:[rax+rax*1+0x0]
    17bb:	00 00 00 00 
    17bf:	66 66 2e 0f 1f 84 00 	data16 nop WORD PTR cs:[rax+rax*1+0x0]
    17c6:	00 00 00 00 
    17ca:	66 66 2e 0f 1f 84 00 	data16 nop WORD PTR cs:[rax+rax*1+0x0]
    17d1:	00 00 00 00 
    17d5:	66 66 2e 0f 1f 84 00 	data16 nop WORD PTR cs:[rax+rax*1+0x0]
    17dc:	00 00 00 00 
    17e0:	66 66 2e 0f 1f 84 00 	data16 nop WORD PTR cs:[rax+rax*1+0x0]
    17e7:	00 00 00 00 
    17eb:	66 66 2e 0f 1f 84 00 	data16 nop WORD PTR cs:[rax+rax*1+0x0]
    17f2:	00 00 00 00 
    17f6:	66 2e 0f 1f 84 00 00 	nop    WORD PTR cs:[rax+rax*1+0x0]
    17fd:	00 00 00 

0000000000001800 <function_3()>:

void function_3()
{
    1800:	f3 0f 1e fa          	endbr64 
    1804:	55                   	push   rbp
    1805:	48 89 e5             	mov    rbp,rsp
    int i = 0;
    1808:	c7 45 fc 00 00 00 00 	mov    DWORD PTR [rbp-0x4],0x0
    for (int j = 0; j < 10; j++)
    180f:	c7 45 f8 00 00 00 00 	mov    DWORD PTR [rbp-0x8],0x0
    1816:	83 7d f8 09          	cmp    DWORD PTR [rbp-0x8],0x9
    181a:	7f 0f                	jg     182b <function_3()+0x2b>
    {
        i = j + 1;
    181c:	8b 45 f8             	mov    eax,DWORD PTR [rbp-0x8]
    181f:	83 c0 01             	add    eax,0x1
    1822:	89 45 fc             	mov    DWORD PTR [rbp-0x4],eax
    for (int j = 0; j < 10; j++)
    1825:	83 45 f8 01          	add    DWORD PTR [rbp-0x8],0x1
    1829:	eb eb                	jmp    1816 <function_3()+0x16>
    }
}
    182b:	90                   	nop
    182c:	5d                   	pop    rbp
    182d:	c3                   	ret    
    182e:	e9 cd 01 00 00       	jmp    1a00 <function_4()>
    1833:	66 66 2e 0f 1f 84 00 	data16 nop WORD PTR cs:[rax+rax*1+0x0]
    183a:	00 00 00 00 
    183e:	66 66 2e 0f 1f 84 00 	data16 nop WORD PTR cs:[rax+rax*1+0x0]
    1845:	00 00 00 00 
    1849:	66 66 2e 0f 1f 84 00 	data16 nop WORD PTR cs:[rax+rax*1+0x0]
    1850:	00 00 00 00 
    1854:	66 66 2e 0f 1f 84 00 	data16 nop WORD PTR cs:[rax+rax*1+0x0]
    185b:	00 00 00 00 
    185f:	66 66 2e 0f 1f 84 00 	data16 nop WORD PTR cs:[rax+rax*1+0x0]
    1866:	00 00 00 00 
    186a:	66 66 2e 0f 1f 84 00 	data16 nop WORD PTR cs:[rax+rax*1+0x0]
    1871:	00 00 00 00 
    1875:	66 66 2e 0f 1f 84 00 	data16 nop WORD PTR cs:[rax+rax*1+0x0]
    187c:	00 00 00 00 
    1880:	66 66 2e 0f 1f 84 00 	data16 nop WORD PTR cs:[rax+rax*1+0x0]
    1887:	00 00 00 00 
    188b:	66 66 2e 0f 1f 84 00 	data16 nop WORD PTR cs:[rax+rax*1+0x0]
    1892:	00 00 00 00 
    1896:	66 66 2e 0f 1f 84 00 	data16 nop WORD PTR cs:[rax+rax*1+0x0]
    189d:	00 00 00 00 
    18a1:	66 66 2e 0f 1f 84 00 	data16 nop WORD PTR cs:[rax+rax*1+0x0]
    18a8:	00 00 00 00 
    18ac:	66 66 2e 0f 1f 84 00 	data16 nop WORD PTR cs:[rax+rax*1+0x0]
    18b3:	00 00 00 00 
    18b7:	66 66 2e 0f 1f 84 00 	data16 nop WORD PTR cs:[rax+rax*1+0x0]
    18be:	00 00 00 00 
    18c2:	66 66 2e 0f 1f 84 00 	data16 nop WORD PTR cs:[rax+rax*1+0x0]
    18c9:	00 00 00 00 
    18cd:	66 66 2e 0f 1f 84 00 	data16 nop WORD PTR cs:[rax+rax*1+0x0]
    18d4:	00 00 00 00 
    18d8:	66 66 2e 0f 1f 84 00 	data16 nop WORD PTR cs:[rax+rax*1+0x0]
    18df:	00 00 00 00 
    18e3:	66 66 2e 0f 1f 84 00 	data16 nop WORD PTR cs:[rax+rax*1+0x0]
    18ea:	00 00 00 00 
    18ee:	66 66 2e 0f 1f 84 00 	data16 nop WORD PTR cs:[rax+rax*1+0x0]
    18f5:	00 00 00 00 
    18f9:	66 66 2e 0f 1f 84 00 	data16 nop WORD PTR cs:[rax+rax*1+0x0]
    1900:	00 00 00 00 
    1904:	66 66 2e 0f 1f 84 00 	data16 nop WORD PTR cs:[rax+rax*1+0x0]
    190b:	00 00 00 00 
    190f:	66 66 2e 0f 1f 84 00 	data16 nop WORD PTR cs:[rax+rax*1+0x0]
    1916:	00 00 00 00 
    191a:	66 66 2e 0f 1f 84 00 	data16 nop WORD PTR cs:[rax+rax*1+0x0]
    1921:	00 00 00 00 
    1925:	66 66 2e 0f 1f 84 00 	data16 nop WORD PTR cs:[rax+rax*1+0x0]
    192c:	00 00 00 00 
    1930:	66 66 2e 0f 1f 84 00 	data16 nop WORD PTR cs:[rax+rax*1+0x0]
    1937:	00 00 00 00 
    193b:	66 66 2e 0f 1f 84 00 	data16 nop WORD PTR cs:[rax+rax*1+0x0]
    1942:	00 00 00 00 
    1946:	66 66 2e 0f 1f 84 00 	data16 nop WORD PTR cs:[rax+rax*1+0x0]
    194d:	00 00 00 00 
    1951:	66 66 2e 0f 1f 84 00 	data16 nop WORD PTR cs:[rax+rax*1+0x0]
    1958:	00 00 00 00 
    195c:	66 66 2e 0f 1f 84 00 	data16 nop WORD PTR cs:[rax+rax*1+0x0]
    1963:	00 00 00 00 
    1967:	66 66 2e 0f 1f 84 00 	data16 nop WORD PTR cs:[rax+rax*1+0x0]
    196e:	00 00 00 00 
    1972:	66 66 2e 0f 1f 84 00 	data16 nop WORD PTR cs:[rax+rax*1+0x0]
    1979:	00 00 00 00 
    197d:	66 66 2e 0f 1f 84 00 	data16 nop WORD PTR cs:[rax+rax*1+0x0]
    1984:	00 00 00 00 
    1988:	66 66 2e 0f 1f 84 00 	data16 nop WORD PTR cs:[rax+rax*1+0x0]
    198f:	00 00 00 00 
    1993:	66 66 2e 0f 1f 84 00 	data16 nop WORD PTR cs:[rax+rax*1+0x0]
    199a:	00 00 00 00 
    199e:	66 66 2e 0f 1f 84 00 	data16 nop WORD PTR cs:[rax+rax*1+0x0]
    19a5:	00 00 00 00 
    19a9:	66 66 2e 0f 1f 84 00 	data16 nop WORD PTR cs:[rax+rax*1+0x0]
    19b0:	00 00 00 00 
    19b4:	66 66 2e 0f 1f 84 00 	data16 nop WORD PTR cs:[rax+rax*1+0x0]
    19bb:	00 00 00 00 
    19bf:	66 66 2e 0f 1f 84 00 	data16 nop WORD PTR cs:[rax+rax*1+0x0]
    19c6:	00 00 00 00 
    19ca:	66 66 2e 0f 1f 84 00 	data16 nop WORD PTR cs:[rax+rax*1+0x0]
    19d1:	00 00 00 00 
    19d5:	66 66 2e 0f 1f 84 00 	data16 nop WORD PTR cs:[rax+rax*1+0x0]
    19dc:	00 00 00 00 
    19e0:	66 66 2e 0f 1f 84 00 	data16 nop WORD PTR cs:[rax+rax*1+0x0]
    19e7:	00 00 00 00 
    19eb:	66 66 2e 0f 1f 84 00 	data16 nop WORD PTR cs:[rax+rax*1+0x0]
    19f2:	00 00 00 00 
    19f6:	66 2e 0f 1f 84 00 00 	nop    WORD PTR cs:[rax+rax*1+0x0]
    19fd:	00 00 00 

0000000000001a00 <function_4()>:

void function_4()
{
    1a00:	f3 0f 1e fa          	endbr64 
    1a04:	55                   	push   rbp
    1a05:	48 89 e5             	mov    rbp,rsp
    int i = 0;
    1a08:	c7 45 fc 00 00 00 00 	mov    DWORD PTR [rbp-0x4],0x0
    for (int j = 0; j < 10; j++)
    1a0f:	c7 45 f8 00 00 00 00 	mov    DWORD PTR [rbp-0x8],0x0
    1a16:	83 7d f8 09          	cmp    DWORD PTR [rbp-0x8],0x9
    1a1a:	7f 0f                	jg     1a2b <function_4()+0x2b>
    {
        i = j + 1;
    1a1c:	8b 45 f8             	mov    eax,DWORD PTR [rbp-0x8]
    1a1f:	83 c0 01             	add    eax,0x1
    1a22:	89 45 fc             	mov    DWORD PTR [rbp-0x4],eax
    for (int j = 0; j < 10; j++)
    1a25:	83 45 f8 01          	add    DWORD PTR [rbp-0x8],0x1
    1a29:	eb eb                	jmp    1a16 <function_4()+0x16>
    }
}
    1a2b:	90                   	nop
    1a2c:	5d                   	pop    rbp
    1a2d:	c3                   	ret    
    1a2e:	e9 cd 01 00 00       	jmp    1c00 <function_5()>
    1a33:	66 66 2e 0f 1f 84 00 	data16 nop WORD PTR cs:[rax+rax*1+0x0]
    1a3a:	00 00 00 00 
    1a3e:	66 66 2e 0f 1f 84 00 	data16 nop WORD PTR cs:[rax+rax*1+0x0]
    1a45:	00 00 00 00 
    1a49:	66 66 2e 0f 1f 84 00 	data16 nop WORD PTR cs:[rax+rax*1+0x0]
    1a50:	00 00 00 00 
    1a54:	66 66 2e 0f 1f 84 00 	data16 nop WORD PTR cs:[rax+rax*1+0x0]
    1a5b:	00 00 00 00 
    1a5f:	66 66 2e 0f 1f 84 00 	data16 nop WORD PTR cs:[rax+rax*1+0x0]
    1a66:	00 00 00 00 
    1a6a:	66 66 2e 0f 1f 84 00 	data16 nop WORD PTR cs:[rax+rax*1+0x0]
    1a71:	00 00 00 00 
    1a75:	66 66 2e 0f 1f 84 00 	data16 nop WORD PTR cs:[rax+rax*1+0x0]
    1a7c:	00 00 00 00 
    1a80:	66 66 2e 0f 1f 84 00 	data16 nop WORD PTR cs:[rax+rax*1+0x0]
    1a87:	00 00 00 00 
    1a8b:	66 66 2e 0f 1f 84 00 	data16 nop WORD PTR cs:[rax+rax*1+0x0]
    1a92:	00 00 00 00 
    1a96:	66 66 2e 0f 1f 84 00 	data16 nop WORD PTR cs:[rax+rax*1+0x0]
    1a9d:	00 00 00 00 
    1aa1:	66 66 2e 0f 1f 84 00 	data16 nop WORD PTR cs:[rax+rax*1+0x0]
    1aa8:	00 00 00 00 
    1aac:	66 66 2e 0f 1f 84 00 	data16 nop WORD PTR cs:[rax+rax*1+0x0]
    1ab3:	00 00 00 00 
    1ab7:	66 66 2e 0f 1f 84 00 	data16 nop WORD PTR cs:[rax+rax*1+0x0]
    1abe:	00 00 00 00 
    1ac2:	66 66 2e 0f 1f 84 00 	data16 nop WORD PTR cs:[rax+rax*1+0x0]
    1ac9:	00 00 00 00 
    1acd:	66 66 2e 0f 1f 84 00 	data16 nop WORD PTR cs:[rax+rax*1+0x0]
    1ad4:	00 00 00 00 
    1ad8:	66 66 2e 0f 1f 84 00 	data16 nop WORD PTR cs:[rax+rax*1+0x0]
    1adf:	00 00 00 00 
    1ae3:	66 66 2e 0f 1f 84 00 	data16 nop WORD PTR cs:[rax+rax*1+0x0]
    1aea:	00 00 00 00 
    1aee:	66 66 2e 0f 1f 84 00 	data16 nop WORD PTR cs:[rax+rax*1+0x0]
    1af5:	00 00 00 00 
    1af9:	66 66 2e 0f 1f 84 00 	data16 nop WORD PTR cs:[rax+rax*1+0x0]
    1b00:	00 00 00 00 
    1b04:	66 66 2e 0f 1f 84 00 	data16 nop WORD PTR cs:[rax+rax*1+0x0]
    1b0b:	00 00 00 00 
    1b0f:	66 66 2e 0f 1f 84 00 	data16 nop WORD PTR cs:[rax+rax*1+0x0]
    1b16:	00 00 00 00 
    1b1a:	66 66 2e 0f 1f 84 00 	data16 nop WORD PTR cs:[rax+rax*1+0x0]
    1b21:	00 00 00 00 
    1b25:	66 66 2e 0f 1f 84 00 	data16 nop WORD PTR cs:[rax+rax*1+0x0]
    1b2c:	00 00 00 00 
    1b30:	66 66 2e 0f 1f 84 00 	data16 nop WORD PTR cs:[rax+rax*1+0x0]
    1b37:	00 00 00 00 
    1b3b:	66 66 2e 0f 1f 84 00 	data16 nop WORD PTR cs:[rax+rax*1+0x0]
    1b42:	00 00 00 00 
    1b46:	66 66 2e 0f 1f 84 00 	data16 nop WORD PTR cs:[rax+rax*1+0x0]
    1b4d:	00 00 00 00 
    1b51:	66 66 2e 0f 1f 84 00 	data16 nop WORD PTR cs:[rax+rax*1+0x0]
    1b58:	00 00 00 00 
    1b5c:	66 66 2e 0f 1f 84 00 	data16 nop WORD PTR cs:[rax+rax*1+0x0]
    1b63:	00 00 00 00 
    1b67:	66 66 2e 0f 1f 84 00 	data16 nop WORD PTR cs:[rax+rax*1+0x0]
    1b6e:	00 00 00 00 
    1b72:	66 66 2e 0f 1f 84 00 	data16 nop WORD PTR cs:[rax+rax*1+0x0]
    1b79:	00 00 00 00 
    1b7d:	66 66 2e 0f 1f 84 00 	data16 nop WORD PTR cs:[rax+rax*1+0x0]
    1b84:	00 00 00 00 
    1b88:	66 66 2e 0f 1f 84 00 	data16 nop WORD PTR cs:[rax+rax*1+0x0]
    1b8f:	00 00 00 00 
    1b93:	66 66 2e 0f 1f 84 00 	data16 nop WORD PTR cs:[rax+rax*1+0x0]
    1b9a:	00 00 00 00 
    1b9e:	66 66 2e 0f 1f 84 00 	data16 nop WORD PTR cs:[rax+rax*1+0x0]
    1ba5:	00 00 00 00 
    1ba9:	66 66 2e 0f 1f 84 00 	data16 nop WORD PTR cs:[rax+rax*1+0x0]
    1bb0:	00 00 00 00 
    1bb4:	66 66 2e 0f 1f 84 00 	data16 nop WORD PTR cs:[rax+rax*1+0x0]
    1bbb:	00 00 00 00 
    1bbf:	66 66 2e 0f 1f 84 00 	data16 nop WORD PTR cs:[rax+rax*1+0x0]
    1bc6:	00 00 00 00 
    1bca:	66 66 2e 0f 1f 84 00 	data16 nop WORD PTR cs:[rax+rax*1+0x0]
    1bd1:	00 00 00 00 
    1bd5:	66 66 2e 0f 1f 84 00 	data16 nop WORD PTR cs:[rax+rax*1+0x0]
    1bdc:	00 00 00 00 
    1be0:	66 66 2e 0f 1f 84 00 	data16 nop WORD PTR cs:[rax+rax*1+0x0]
    1be7:	00 00 00 00 
    1beb:	66 66 2e 0f 1f 84 00 	data16 nop WORD PTR cs:[rax+rax*1+0x0]
    1bf2:	00 00 00 00 
    1bf6:	66 2e 0f 1f 84 00 00 	nop    WORD PTR cs:[rax+rax*1+0x0]
    1bfd:	00 00 00 

0000000000001c00 <function_5()>:

void function_5()
{
    1c00:	f3 0f 1e fa          	endbr64 
    1c04:	55                   	push   rbp
    1c05:	48 89 e5             	mov    rbp,rsp
    int i = 0;
    1c08:	c7 45 fc 00 00 00 00 	mov    DWORD PTR [rbp-0x4],0x0
    for (int j = 0; j < 10; j++)
    1c0f:	c7 45 f8 00 00 00 00 	mov    DWORD PTR [rbp-0x8],0x0
    1c16:	83 7d f8 09          	cmp    DWORD PTR [rbp-0x8],0x9
    1c1a:	7f 0f                	jg     1c2b <function_5()+0x2b>
    {
        i = j + 1;
    1c1c:	8b 45 f8             	mov    eax,DWORD PTR [rbp-0x8]
    1c1f:	83 c0 01             	add    eax,0x1
    1c22:	89 45 fc             	mov    DWORD PTR [rbp-0x4],eax
    for (int j = 0; j < 10; j++)
    1c25:	83 45 f8 01          	add    DWORD PTR [rbp-0x8],0x1
    1c29:	eb eb                	jmp    1c16 <function_5()+0x16>
    }
}
    1c2b:	90                   	nop
    1c2c:	5d                   	pop    rbp
    1c2d:	c3                   	ret    
    1c2e:	e9 cd 01 00 00       	jmp    1e00 <function_6()>
    1c33:	66 66 2e 0f 1f 84 00 	data16 nop WORD PTR cs:[rax+rax*1+0x0]
    1c3a:	00 00 00 00 
    1c3e:	66 66 2e 0f 1f 84 00 	data16 nop WORD PTR cs:[rax+rax*1+0x0]
    1c45:	00 00 00 00 
    1c49:	66 66 2e 0f 1f 84 00 	data16 nop WORD PTR cs:[rax+rax*1+0x0]
    1c50:	00 00 00 00 
    1c54:	66 66 2e 0f 1f 84 00 	data16 nop WORD PTR cs:[rax+rax*1+0x0]
    1c5b:	00 00 00 00 
    1c5f:	66 66 2e 0f 1f 84 00 	data16 nop WORD PTR cs:[rax+rax*1+0x0]
    1c66:	00 00 00 00 
    1c6a:	66 66 2e 0f 1f 84 00 	data16 nop WORD PTR cs:[rax+rax*1+0x0]
    1c71:	00 00 00 00 
    1c75:	66 66 2e 0f 1f 84 00 	data16 nop WORD PTR cs:[rax+rax*1+0x0]
    1c7c:	00 00 00 00 
    1c80:	66 66 2e 0f 1f 84 00 	data16 nop WORD PTR cs:[rax+rax*1+0x0]
    1c87:	00 00 00 00 
    1c8b:	66 66 2e 0f 1f 84 00 	data16 nop WORD PTR cs:[rax+rax*1+0x0]
    1c92:	00 00 00 00 
    1c96:	66 66 2e 0f 1f 84 00 	data16 nop WORD PTR cs:[rax+rax*1+0x0]
    1c9d:	00 00 00 00 
    1ca1:	66 66 2e 0f 1f 84 00 	data16 nop WORD PTR cs:[rax+rax*1+0x0]
    1ca8:	00 00 00 00 
    1cac:	66 66 2e 0f 1f 84 00 	data16 nop WORD PTR cs:[rax+rax*1+0x0]
    1cb3:	00 00 00 00 
    1cb7:	66 66 2e 0f 1f 84 00 	data16 nop WORD PTR cs:[rax+rax*1+0x0]
    1cbe:	00 00 00 00 
    1cc2:	66 66 2e 0f 1f 84 00 	data16 nop WORD PTR cs:[rax+rax*1+0x0]
    1cc9:	00 00 00 00 
    1ccd:	66 66 2e 0f 1f 84 00 	data16 nop WORD PTR cs:[rax+rax*1+0x0]
    1cd4:	00 00 00 00 
    1cd8:	66 66 2e 0f 1f 84 00 	data16 nop WORD PTR cs:[rax+rax*1+0x0]
    1cdf:	00 00 00 00 
    1ce3:	66 66 2e 0f 1f 84 00 	data16 nop WORD PTR cs:[rax+rax*1+0x0]
    1cea:	00 00 00 00 
    1cee:	66 66 2e 0f 1f 84 00 	data16 nop WORD PTR cs:[rax+rax*1+0x0]
    1cf5:	00 00 00 00 
    1cf9:	66 66 2e 0f 1f 84 00 	data16 nop WORD PTR cs:[rax+rax*1+0x0]
    1d00:	00 00 00 00 
    1d04:	66 66 2e 0f 1f 84 00 	data16 nop WORD PTR cs:[rax+rax*1+0x0]
    1d0b:	00 00 00 00 
    1d0f:	66 66 2e 0f 1f 84 00 	data16 nop WORD PTR cs:[rax+rax*1+0x0]
    1d16:	00 00 00 00 
    1d1a:	66 66 2e 0f 1f 84 00 	data16 nop WORD PTR cs:[rax+rax*1+0x0]
    1d21:	00 00 00 00 
    1d25:	66 66 2e 0f 1f 84 00 	data16 nop WORD PTR cs:[rax+rax*1+0x0]
    1d2c:	00 00 00 00 
    1d30:	66 66 2e 0f 1f 84 00 	data16 nop WORD PTR cs:[rax+rax*1+0x0]
    1d37:	00 00 00 00 
    1d3b:	66 66 2e 0f 1f 84 00 	data16 nop WORD PTR cs:[rax+rax*1+0x0]
    1d42:	00 00 00 00 
    1d46:	66 66 2e 0f 1f 84 00 	data16 nop WORD PTR cs:[rax+rax*1+0x0]
    1d4d:	00 00 00 00 
    1d51:	66 66 2e 0f 1f 84 00 	data16 nop WORD PTR cs:[rax+rax*1+0x0]
    1d58:	00 00 00 00 
    1d5c:	66 66 2e 0f 1f 84 00 	data16 nop WORD PTR cs:[rax+rax*1+0x0]
    1d63:	00 00 00 00 
    1d67:	66 66 2e 0f 1f 84 00 	data16 nop WORD PTR cs:[rax+rax*1+0x0]
    1d6e:	00 00 00 00 
    1d72:	66 66 2e 0f 1f 84 00 	data16 nop WORD PTR cs:[rax+rax*1+0x0]
    1d79:	00 00 00 00 
    1d7d:	66 66 2e 0f 1f 84 00 	data16 nop WORD PTR cs:[rax+rax*1+0x0]
    1d84:	00 00 00 00 
    1d88:	66 66 2e 0f 1f 84 00 	data16 nop WORD PTR cs:[rax+rax*1+0x0]
    1d8f:	00 00 00 00 
    1d93:	66 66 2e 0f 1f 84 00 	data16 nop WORD PTR cs:[rax+rax*1+0x0]
    1d9a:	00 00 00 00 
    1d9e:	66 66 2e 0f 1f 84 00 	data16 nop WORD PTR cs:[rax+rax*1+0x0]
    1da5:	00 00 00 00 
    1da9:	66 66 2e 0f 1f 84 00 	data16 nop WORD PTR cs:[rax+rax*1+0x0]
    1db0:	00 00 00 00 
    1db4:	66 66 2e 0f 1f 84 00 	data16 nop WORD PTR cs:[rax+rax*1+0x0]
    1dbb:	00 00 00 00 
    1dbf:	66 66 2e 0f 1f 84 00 	data16 nop WORD PTR cs:[rax+rax*1+0x0]
    1dc6:	00 00 00 00 
    1dca:	66 66 2e 0f 1f 84 00 	data16 nop WORD PTR cs:[rax+rax*1+0x0]
    1dd1:	00 00 00 00 
    1dd5:	66 66 2e 0f 1f 84 00 	data16 nop WORD PTR cs:[rax+rax*1+0x0]
    1ddc:	00 00 00 00 
    1de0:	66 66 2e 0f 1f 84 00 	data16 nop WORD PTR cs:[rax+rax*1+0x0]
    1de7:	00 00 00 00 
    1deb:	66 66 2e 0f 1f 84 00 	data16 nop WORD PTR cs:[rax+rax*1+0x0]
    1df2:	00 00 00 00 
    1df6:	66 2e 0f 1f 84 00 00 	nop    WORD PTR cs:[rax+rax*1+0x0]
    1dfd:	00 00 00 

0000000000001e00 <function_6()>:

void function_6()
{
    1e00:	f3 0f 1e fa          	endbr64 
    1e04:	55                   	push   rbp
    1e05:	48 89 e5             	mov    rbp,rsp
    int i = 0;
    1e08:	c7 45 fc 00 00 00 00 	mov    DWORD PTR [rbp-0x4],0x0
    for (int j = 0; j < 10; j++)
    1e0f:	c7 45 f8 00 00 00 00 	mov    DWORD PTR [rbp-0x8],0x0
    1e16:	83 7d f8 09          	cmp    DWORD PTR [rbp-0x8],0x9
    1e1a:	7f 0f                	jg     1e2b <function_6()+0x2b>
    {
        i = j + 1;
    1e1c:	8b 45 f8             	mov    eax,DWORD PTR [rbp-0x8]
    1e1f:	83 c0 01             	add    eax,0x1
    1e22:	89 45 fc             	mov    DWORD PTR [rbp-0x4],eax
    for (int j = 0; j < 10; j++)
    1e25:	83 45 f8 01          	add    DWORD PTR [rbp-0x8],0x1
    1e29:	eb eb                	jmp    1e16 <function_6()+0x16>
    }
}
    1e2b:	90                   	nop
    1e2c:	5d                   	pop    rbp
    1e2d:	c3                   	ret    
    1e2e:	e9 cd 01 00 00       	jmp    2000 <function_7()>
    1e33:	66 66 2e 0f 1f 84 00 	data16 nop WORD PTR cs:[rax+rax*1+0x0]
    1e3a:	00 00 00 00 
    1e3e:	66 66 2e 0f 1f 84 00 	data16 nop WORD PTR cs:[rax+rax*1+0x0]
    1e45:	00 00 00 00 
    1e49:	66 66 2e 0f 1f 84 00 	data16 nop WORD PTR cs:[rax+rax*1+0x0]
    1e50:	00 00 00 00 
    1e54:	66 66 2e 0f 1f 84 00 	data16 nop WORD PTR cs:[rax+rax*1+0x0]
    1e5b:	00 00 00 00 
    1e5f:	66 66 2e 0f 1f 84 00 	data16 nop WORD PTR cs:[rax+rax*1+0x0]
    1e66:	00 00 00 00 
    1e6a:	66 66 2e 0f 1f 84 00 	data16 nop WORD PTR cs:[rax+rax*1+0x0]
    1e71:	00 00 00 00 
    1e75:	66 66 2e 0f 1f 84 00 	data16 nop WORD PTR cs:[rax+rax*1+0x0]
    1e7c:	00 00 00 00 
    1e80:	66 66 2e 0f 1f 84 00 	data16 nop WORD PTR cs:[rax+rax*1+0x0]
    1e87:	00 00 00 00 
    1e8b:	66 66 2e 0f 1f 84 00 	data16 nop WORD PTR cs:[rax+rax*1+0x0]
    1e92:	00 00 00 00 
    1e96:	66 66 2e 0f 1f 84 00 	data16 nop WORD PTR cs:[rax+rax*1+0x0]
    1e9d:	00 00 00 00 
    1ea1:	66 66 2e 0f 1f 84 00 	data16 nop WORD PTR cs:[rax+rax*1+0x0]
    1ea8:	00 00 00 00 
    1eac:	66 66 2e 0f 1f 84 00 	data16 nop WORD PTR cs:[rax+rax*1+0x0]
    1eb3:	00 00 00 00 
    1eb7:	66 66 2e 0f 1f 84 00 	data16 nop WORD PTR cs:[rax+rax*1+0x0]
    1ebe:	00 00 00 00 
    1ec2:	66 66 2e 0f 1f 84 00 	data16 nop WORD PTR cs:[rax+rax*1+0x0]
    1ec9:	00 00 00 00 
    1ecd:	66 66 2e 0f 1f 84 00 	data16 nop WORD PTR cs:[rax+rax*1+0x0]
    1ed4:	00 00 00 00 
    1ed8:	66 66 2e 0f 1f 84 00 	data16 nop WORD PTR cs:[rax+rax*1+0x0]
    1edf:	00 00 00 00 
    1ee3:	66 66 2e 0f 1f 84 00 	data16 nop WORD PTR cs:[rax+rax*1+0x0]
    1eea:	00 00 00 00 
    1eee:	66 66 2e 0f 1f 84 00 	data16 nop WORD PTR cs:[rax+rax*1+0x0]
    1ef5:	00 00 00 00 
    1ef9:	66 66 2e 0f 1f 84 00 	data16 nop WORD PTR cs:[rax+rax*1+0x0]
    1f00:	00 00 00 00 
    1f04:	66 66 2e 0f 1f 84 00 	data16 nop WORD PTR cs:[rax+rax*1+0x0]
    1f0b:	00 00 00 00 
    1f0f:	66 66 2e 0f 1f 84 00 	data16 nop WORD PTR cs:[rax+rax*1+0x0]
    1f16:	00 00 00 00 
    1f1a:	66 66 2e 0f 1f 84 00 	data16 nop WORD PTR cs:[rax+rax*1+0x0]
    1f21:	00 00 00 00 
    1f25:	66 66 2e 0f 1f 84 00 	data16 nop WORD PTR cs:[rax+rax*1+0x0]
    1f2c:	00 00 00 00 
    1f30:	66 66 2e 0f 1f 84 00 	data16 nop WORD PTR cs:[rax+rax*1+0x0]
    1f37:	00 00 00 00 
    1f3b:	66 66 2e 0f 1f 84 00 	data16 nop WORD PTR cs:[rax+rax*1+0x0]
    1f42:	00 00 00 00 
    1f46:	66 66 2e 0f 1f 84 00 	data16 nop WORD PTR cs:[rax+rax*1+0x0]
    1f4d:	00 00 00 00 
    1f51:	66 66 2e 0f 1f 84 00 	data16 nop WORD PTR cs:[rax+rax*1+0x0]
    1f58:	00 00 00 00 
    1f5c:	66 66 2e 0f 1f 84 00 	data16 nop WORD PTR cs:[rax+rax*1+0x0]
    1f63:	00 00 00 00 
    1f67:	66 66 2e 0f 1f 84 00 	data16 nop WORD PTR cs:[rax+rax*1+0x0]
    1f6e:	00 00 00 00 
    1f72:	66 66 2e 0f 1f 84 00 	data16 nop WORD PTR cs:[rax+rax*1+0x0]
    1f79:	00 00 00 00 
    1f7d:	66 66 2e 0f 1f 84 00 	data16 nop WORD PTR cs:[rax+rax*1+0x0]
    1f84:	00 00 00 00 
    1f88:	66 66 2e 0f 1f 84 00 	data16 nop WORD PTR cs:[rax+rax*1+0x0]
    1f8f:	00 00 00 00 
    1f93:	66 66 2e 0f 1f 84 00 	data16 nop WORD PTR cs:[rax+rax*1+0x0]
    1f9a:	00 00 00 00 
    1f9e:	66 66 2e 0f 1f 84 00 	data16 nop WORD PTR cs:[rax+rax*1+0x0]
    1fa5:	00 00 00 00 
    1fa9:	66 66 2e 0f 1f 84 00 	data16 nop WORD PTR cs:[rax+rax*1+0x0]
    1fb0:	00 00 00 00 
    1fb4:	66 66 2e 0f 1f 84 00 	data16 nop WORD PTR cs:[rax+rax*1+0x0]
    1fbb:	00 00 00 00 
    1fbf:	66 66 2e 0f 1f 84 00 	data16 nop WORD PTR cs:[rax+rax*1+0x0]
    1fc6:	00 00 00 00 
    1fca:	66 66 2e 0f 1f 84 00 	data16 nop WORD PTR cs:[rax+rax*1+0x0]
    1fd1:	00 00 00 00 
    1fd5:	66 66 2e 0f 1f 84 00 	data16 nop WORD PTR cs:[rax+rax*1+0x0]
    1fdc:	00 00 00 00 
    1fe0:	66 66 2e 0f 1f 84 00 	data16 nop WORD PTR cs:[rax+rax*1+0x0]
    1fe7:	00 00 00 00 
    1feb:	66 66 2e 0f 1f 84 00 	data16 nop WORD PTR cs:[rax+rax*1+0x0]
    1ff2:	00 00 00 00 
    1ff6:	66 2e 0f 1f 84 00 00 	nop    WORD PTR cs:[rax+rax*1+0x0]
    1ffd:	00 00 00 

0000000000002000 <function_7()>:

void function_7()
{
    2000:	f3 0f 1e fa          	endbr64 
    2004:	55                   	push   rbp
    2005:	48 89 e5             	mov    rbp,rsp
    int i = 0;
    2008:	c7 45 fc 00 00 00 00 	mov    DWORD PTR [rbp-0x4],0x0
    for (int j = 0; j < 10; j++)
    200f:	c7 45 f8 00 00 00 00 	mov    DWORD PTR [rbp-0x8],0x0
    2016:	83 7d f8 09          	cmp    DWORD PTR [rbp-0x8],0x9
    201a:	7f 0f                	jg     202b <function_7()+0x2b>
    {
        i = j + 1;
    201c:	8b 45 f8             	mov    eax,DWORD PTR [rbp-0x8]
    201f:	83 c0 01             	add    eax,0x1
    2022:	89 45 fc             	mov    DWORD PTR [rbp-0x4],eax
    for (int j = 0; j < 10; j++)
    2025:	83 45 f8 01          	add    DWORD PTR [rbp-0x8],0x1
    2029:	eb eb                	jmp    2016 <function_7()+0x16>
    }
}
    202b:	90                   	nop
    202c:	5d                   	pop    rbp
    202d:	c3                   	ret    
    202e:	e9 cd 01 00 00       	jmp    2200 <function_8()>
    2033:	66 66 2e 0f 1f 84 00 	data16 nop WORD PTR cs:[rax+rax*1+0x0]
    203a:	00 00 00 00 
    203e:	66 66 2e 0f 1f 84 00 	data16 nop WORD PTR cs:[rax+rax*1+0x0]
    2045:	00 00 00 00 
    2049:	66 66 2e 0f 1f 84 00 	data16 nop WORD PTR cs:[rax+rax*1+0x0]
    2050:	00 00 00 00 
    2054:	66 66 2e 0f 1f 84 00 	data16 nop WORD PTR cs:[rax+rax*1+0x0]
    205b:	00 00 00 00 
    205f:	66 66 2e 0f 1f 84 00 	data16 nop WORD PTR cs:[rax+rax*1+0x0]
    2066:	00 00 00 00 
    206a:	66 66 2e 0f 1f 84 00 	data16 nop WORD PTR cs:[rax+rax*1+0x0]
    2071:	00 00 00 00 
    2075:	66 66 2e 0f 1f 84 00 	data16 nop WORD PTR cs:[rax+rax*1+0x0]
    207c:	00 00 00 00 
    2080:	66 66 2e 0f 1f 84 00 	data16 nop WORD PTR cs:[rax+rax*1+0x0]
    2087:	00 00 00 00 
    208b:	66 66 2e 0f 1f 84 00 	data16 nop WORD PTR cs:[rax+rax*1+0x0]
    2092:	00 00 00 00 
    2096:	66 66 2e 0f 1f 84 00 	data16 nop WORD PTR cs:[rax+rax*1+0x0]
    209d:	00 00 00 00 
    20a1:	66 66 2e 0f 1f 84 00 	data16 nop WORD PTR cs:[rax+rax*1+0x0]
    20a8:	00 00 00 00 
    20ac:	66 66 2e 0f 1f 84 00 	data16 nop WORD PTR cs:[rax+rax*1+0x0]
    20b3:	00 00 00 00 
    20b7:	66 66 2e 0f 1f 84 00 	data16 nop WORD PTR cs:[rax+rax*1+0x0]
    20be:	00 00 00 00 
    20c2:	66 66 2e 0f 1f 84 00 	data16 nop WORD PTR cs:[rax+rax*1+0x0]
    20c9:	00 00 00 00 
    20cd:	66 66 2e 0f 1f 84 00 	data16 nop WORD PTR cs:[rax+rax*1+0x0]
    20d4:	00 00 00 00 
    20d8:	66 66 2e 0f 1f 84 00 	data16 nop WORD PTR cs:[rax+rax*1+0x0]
    20df:	00 00 00 00 
    20e3:	66 66 2e 0f 1f 84 00 	data16 nop WORD PTR cs:[rax+rax*1+0x0]
    20ea:	00 00 00 00 
    20ee:	66 66 2e 0f 1f 84 00 	data16 nop WORD PTR cs:[rax+rax*1+0x0]
    20f5:	00 00 00 00 
    20f9:	66 66 2e 0f 1f 84 00 	data16 nop WORD PTR cs:[rax+rax*1+0x0]
    2100:	00 00 00 00 
    2104:	66 66 2e 0f 1f 84 00 	data16 nop WORD PTR cs:[rax+rax*1+0x0]
    210b:	00 00 00 00 
    210f:	66 66 2e 0f 1f 84 00 	data16 nop WORD PTR cs:[rax+rax*1+0x0]
    2116:	00 00 00 00 
    211a:	66 66 2e 0f 1f 84 00 	data16 nop WORD PTR cs:[rax+rax*1+0x0]
    2121:	00 00 00 00 
    2125:	66 66 2e 0f 1f 84 00 	data16 nop WORD PTR cs:[rax+rax*1+0x0]
    212c:	00 00 00 00 
    2130:	66 66 2e 0f 1f 84 00 	data16 nop WORD PTR cs:[rax+rax*1+0x0]
    2137:	00 00 00 00 
    213b:	66 66 2e 0f 1f 84 00 	data16 nop WORD PTR cs:[rax+rax*1+0x0]
    2142:	00 00 00 00 
    2146:	66 66 2e 0f 1f 84 00 	data16 nop WORD PTR cs:[rax+rax*1+0x0]
    214d:	00 00 00 00 
    2151:	66 66 2e 0f 1f 84 00 	data16 nop WORD PTR cs:[rax+rax*1+0x0]
    2158:	00 00 00 00 
    215c:	66 66 2e 0f 1f 84 00 	data16 nop WORD PTR cs:[rax+rax*1+0x0]
    2163:	00 00 00 00 
    2167:	66 66 2e 0f 1f 84 00 	data16 nop WORD PTR cs:[rax+rax*1+0x0]
    216e:	00 00 00 00 
    2172:	66 66 2e 0f 1f 84 00 	data16 nop WORD PTR cs:[rax+rax*1+0x0]
    2179:	00 00 00 00 
    217d:	66 66 2e 0f 1f 84 00 	data16 nop WORD PTR cs:[rax+rax*1+0x0]
    2184:	00 00 00 00 
    2188:	66 66 2e 0f 1f 84 00 	data16 nop WORD PTR cs:[rax+rax*1+0x0]
    218f:	00 00 00 00 
    2193:	66 66 2e 0f 1f 84 00 	data16 nop WORD PTR cs:[rax+rax*1+0x0]
    219a:	00 00 00 00 
    219e:	66 66 2e 0f 1f 84 00 	data16 nop WORD PTR cs:[rax+rax*1+0x0]
    21a5:	00 00 00 00 
    21a9:	66 66 2e 0f 1f 84 00 	data16 nop WORD PTR cs:[rax+rax*1+0x0]
    21b0:	00 00 00 00 
    21b4:	66 66 2e 0f 1f 84 00 	data16 nop WORD PTR cs:[rax+rax*1+0x0]
    21bb:	00 00 00 00 
    21bf:	66 66 2e 0f 1f 84 00 	data16 nop WORD PTR cs:[rax+rax*1+0x0]
    21c6:	00 00 00 00 
    21ca:	66 66 2e 0f 1f 84 00 	data16 nop WORD PTR cs:[rax+rax*1+0x0]
    21d1:	00 00 00 00 
    21d5:	66 66 2e 0f 1f 84 00 	data16 nop WORD PTR cs:[rax+rax*1+0x0]
    21dc:	00 00 00 00 
    21e0:	66 66 2e 0f 1f 84 00 	data16 nop WORD PTR cs:[rax+rax*1+0x0]
    21e7:	00 00 00 00 
    21eb:	66 66 2e 0f 1f 84 00 	data16 nop WORD PTR cs:[rax+rax*1+0x0]
    21f2:	00 00 00 00 
    21f6:	66 2e 0f 1f 84 00 00 	nop    WORD PTR cs:[rax+rax*1+0x0]
    21fd:	00 00 00 

0000000000002200 <function_8()>:

void function_8()
{
    2200:	f3 0f 1e fa          	endbr64 
    2204:	55                   	push   rbp
    2205:	48 89 e5             	mov    rbp,rsp
    int i = 0;
    2208:	c7 45 fc 00 00 00 00 	mov    DWORD PTR [rbp-0x4],0x0
    for (int j = 0; j < 10; j++)
    220f:	c7 45 f8 00 00 00 00 	mov    DWORD PTR [rbp-0x8],0x0
    2216:	83 7d f8 09          	cmp    DWORD PTR [rbp-0x8],0x9
    221a:	7f 0f                	jg     222b <function_8()+0x2b>
    {
        i = j + 1;
    221c:	8b 45 f8             	mov    eax,DWORD PTR [rbp-0x8]
    221f:	83 c0 01             	add    eax,0x1
    2222:	89 45 fc             	mov    DWORD PTR [rbp-0x4],eax
    for (int j = 0; j < 10; j++)
    2225:	83 45 f8 01          	add    DWORD PTR [rbp-0x8],0x1
    2229:	eb eb                	jmp    2216 <function_8()+0x16>
    }
}
    222b:	90                   	nop
    222c:	5d                   	pop    rbp
    222d:	c3                   	ret    
    222e:	e9 cd 01 00 00       	jmp    2400 <function_9()>
    2233:	66 66 2e 0f 1f 84 00 	data16 nop WORD PTR cs:[rax+rax*1+0x0]
    223a:	00 00 00 00 
    223e:	66 66 2e 0f 1f 84 00 	data16 nop WORD PTR cs:[rax+rax*1+0x0]
    2245:	00 00 00 00 
    2249:	66 66 2e 0f 1f 84 00 	data16 nop WORD PTR cs:[rax+rax*1+0x0]
    2250:	00 00 00 00 
    2254:	66 66 2e 0f 1f 84 00 	data16 nop WORD PTR cs:[rax+rax*1+0x0]
    225b:	00 00 00 00 
    225f:	66 66 2e 0f 1f 84 00 	data16 nop WORD PTR cs:[rax+rax*1+0x0]
    2266:	00 00 00 00 
    226a:	66 66 2e 0f 1f 84 00 	data16 nop WORD PTR cs:[rax+rax*1+0x0]
    2271:	00 00 00 00 
    2275:	66 66 2e 0f 1f 84 00 	data16 nop WORD PTR cs:[rax+rax*1+0x0]
    227c:	00 00 00 00 
    2280:	66 66 2e 0f 1f 84 00 	data16 nop WORD PTR cs:[rax+rax*1+0x0]
    2287:	00 00 00 00 
    228b:	66 66 2e 0f 1f 84 00 	data16 nop WORD PTR cs:[rax+rax*1+0x0]
    2292:	00 00 00 00 
    2296:	66 66 2e 0f 1f 84 00 	data16 nop WORD PTR cs:[rax+rax*1+0x0]
    229d:	00 00 00 00 
    22a1:	66 66 2e 0f 1f 84 00 	data16 nop WORD PTR cs:[rax+rax*1+0x0]
    22a8:	00 00 00 00 
    22ac:	66 66 2e 0f 1f 84 00 	data16 nop WORD PTR cs:[rax+rax*1+0x0]
    22b3:	00 00 00 00 
    22b7:	66 66 2e 0f 1f 84 00 	data16 nop WORD PTR cs:[rax+rax*1+0x0]
    22be:	00 00 00 00 
    22c2:	66 66 2e 0f 1f 84 00 	data16 nop WORD PTR cs:[rax+rax*1+0x0]
    22c9:	00 00 00 00 
    22cd:	66 66 2e 0f 1f 84 00 	data16 nop WORD PTR cs:[rax+rax*1+0x0]
    22d4:	00 00 00 00 
    22d8:	66 66 2e 0f 1f 84 00 	data16 nop WORD PTR cs:[rax+rax*1+0x0]
    22df:	00 00 00 00 
    22e3:	66 66 2e 0f 1f 84 00 	data16 nop WORD PTR cs:[rax+rax*1+0x0]
    22ea:	00 00 00 00 
    22ee:	66 66 2e 0f 1f 84 00 	data16 nop WORD PTR cs:[rax+rax*1+0x0]
    22f5:	00 00 00 00 
    22f9:	66 66 2e 0f 1f 84 00 	data16 nop WORD PTR cs:[rax+rax*1+0x0]
    2300:	00 00 00 00 
    2304:	66 66 2e 0f 1f 84 00 	data16 nop WORD PTR cs:[rax+rax*1+0x0]
    230b:	00 00 00 00 
    230f:	66 66 2e 0f 1f 84 00 	data16 nop WORD PTR cs:[rax+rax*1+0x0]
    2316:	00 00 00 00 
    231a:	66 66 2e 0f 1f 84 00 	data16 nop WORD PTR cs:[rax+rax*1+0x0]
    2321:	00 00 00 00 
    2325:	66 66 2e 0f 1f 84 00 	data16 nop WORD PTR cs:[rax+rax*1+0x0]
    232c:	00 00 00 00 
    2330:	66 66 2e 0f 1f 84 00 	data16 nop WORD PTR cs:[rax+rax*1+0x0]
    2337:	00 00 00 00 
    233b:	66 66 2e 0f 1f 84 00 	data16 nop WORD PTR cs:[rax+rax*1+0x0]
    2342:	00 00 00 00 
    2346:	66 66 2e 0f 1f 84 00 	data16 nop WORD PTR cs:[rax+rax*1+0x0]
    234d:	00 00 00 00 
    2351:	66 66 2e 0f 1f 84 00 	data16 nop WORD PTR cs:[rax+rax*1+0x0]
    2358:	00 00 00 00 
    235c:	66 66 2e 0f 1f 84 00 	data16 nop WORD PTR cs:[rax+rax*1+0x0]
    2363:	00 00 00 00 
    2367:	66 66 2e 0f 1f 84 00 	data16 nop WORD PTR cs:[rax+rax*1+0x0]
    236e:	00 00 00 00 
    2372:	66 66 2e 0f 1f 84 00 	data16 nop WORD PTR cs:[rax+rax*1+0x0]
    2379:	00 00 00 00 
    237d:	66 66 2e 0f 1f 84 00 	data16 nop WORD PTR cs:[rax+rax*1+0x0]
    2384:	00 00 00 00 
    2388:	66 66 2e 0f 1f 84 00 	data16 nop WORD PTR cs:[rax+rax*1+0x0]
    238f:	00 00 00 00 
    2393:	66 66 2e 0f 1f 84 00 	data16 nop WORD PTR cs:[rax+rax*1+0x0]
    239a:	00 00 00 00 
    239e:	66 66 2e 0f 1f 84 00 	data16 nop WORD PTR cs:[rax+rax*1+0x0]
    23a5:	00 00 00 00 
    23a9:	66 66 2e 0f 1f 84 00 	data16 nop WORD PTR cs:[rax+rax*1+0x0]
    23b0:	00 00 00 00 
    23b4:	66 66 2e 0f 1f 84 00 	data16 nop WORD PTR cs:[rax+rax*1+0x0]
    23bb:	00 00 00 00 
    23bf:	66 66 2e 0f 1f 84 00 	data16 nop WORD PTR cs:[rax+rax*1+0x0]
    23c6:	00 00 00 00 
    23ca:	66 66 2e 0f 1f 84 00 	data16 nop WORD PTR cs:[rax+rax*1+0x0]
    23d1:	00 00 00 00 
    23d5:	66 66 2e 0f 1f 84 00 	data16 nop WORD PTR cs:[rax+rax*1+0x0]
    23dc:	00 00 00 00 
    23e0:	66 66 2e 0f 1f 84 00 	data16 nop WORD PTR cs:[rax+rax*1+0x0]
    23e7:	00 00 00 00 
    23eb:	66 66 2e 0f 1f 84 00 	data16 nop WORD PTR cs:[rax+rax*1+0x0]
    23f2:	00 00 00 00 
    23f6:	66 2e 0f 1f 84 00 00 	nop    WORD PTR cs:[rax+rax*1+0x0]
    23fd:	00 00 00 

0000000000002400 <function_9()>:

void function_9()
{
    2400:	f3 0f 1e fa          	endbr64 
    2404:	55                   	push   rbp
    2405:	48 89 e5             	mov    rbp,rsp
    int i = 0;
    2408:	c7 45 fc 00 00 00 00 	mov    DWORD PTR [rbp-0x4],0x0
    for (int j = 0; j < 10; j++)
    240f:	c7 45 f8 00 00 00 00 	mov    DWORD PTR [rbp-0x8],0x0
    2416:	83 7d f8 09          	cmp    DWORD PTR [rbp-0x8],0x9
    241a:	7f 0f                	jg     242b <function_9()+0x2b>
    {
        i = j + 1;
    241c:	8b 45 f8             	mov    eax,DWORD PTR [rbp-0x8]
    241f:	83 c0 01             	add    eax,0x1
    2422:	89 45 fc             	mov    DWORD PTR [rbp-0x4],eax
    for (int j = 0; j < 10; j++)
    2425:	83 45 f8 01          	add    DWORD PTR [rbp-0x8],0x1
    2429:	eb eb                	jmp    2416 <function_9()+0x16>
    }
}
    242b:	90                   	nop
    242c:	5d                   	pop    rbp
    242d:	c3                   	ret    
    242e:	e9 cd 01 00 00       	jmp    2600 <function_10()>
    2433:	66 66 2e 0f 1f 84 00 	data16 nop WORD PTR cs:[rax+rax*1+0x0]
    243a:	00 00 00 00 
    243e:	66 66 2e 0f 1f 84 00 	data16 nop WORD PTR cs:[rax+rax*1+0x0]
    2445:	00 00 00 00 
    2449:	66 66 2e 0f 1f 84 00 	data16 nop WORD PTR cs:[rax+rax*1+0x0]
    2450:	00 00 00 00 
    2454:	66 66 2e 0f 1f 84 00 	data16 nop WORD PTR cs:[rax+rax*1+0x0]
    245b:	00 00 00 00 
    245f:	66 66 2e 0f 1f 84 00 	data16 nop WORD PTR cs:[rax+rax*1+0x0]
    2466:	00 00 00 00 
    246a:	66 66 2e 0f 1f 84 00 	data16 nop WORD PTR cs:[rax+rax*1+0x0]
    2471:	00 00 00 00 
    2475:	66 66 2e 0f 1f 84 00 	data16 nop WORD PTR cs:[rax+rax*1+0x0]
    247c:	00 00 00 00 
    2480:	66 66 2e 0f 1f 84 00 	data16 nop WORD PTR cs:[rax+rax*1+0x0]
    2487:	00 00 00 00 
    248b:	66 66 2e 0f 1f 84 00 	data16 nop WORD PTR cs:[rax+rax*1+0x0]
    2492:	00 00 00 00 
    2496:	66 66 2e 0f 1f 84 00 	data16 nop WORD PTR cs:[rax+rax*1+0x0]
    249d:	00 00 00 00 
    24a1:	66 66 2e 0f 1f 84 00 	data16 nop WORD PTR cs:[rax+rax*1+0x0]
    24a8:	00 00 00 00 
    24ac:	66 66 2e 0f 1f 84 00 	data16 nop WORD PTR cs:[rax+rax*1+0x0]
    24b3:	00 00 00 00 
    24b7:	66 66 2e 0f 1f 84 00 	data16 nop WORD PTR cs:[rax+rax*1+0x0]
    24be:	00 00 00 00 
    24c2:	66 66 2e 0f 1f 84 00 	data16 nop WORD PTR cs:[rax+rax*1+0x0]
    24c9:	00 00 00 00 
    24cd:	66 66 2e 0f 1f 84 00 	data16 nop WORD PTR cs:[rax+rax*1+0x0]
    24d4:	00 00 00 00 
    24d8:	66 66 2e 0f 1f 84 00 	data16 nop WORD PTR cs:[rax+rax*1+0x0]
    24df:	00 00 00 00 
    24e3:	66 66 2e 0f 1f 84 00 	data16 nop WORD PTR cs:[rax+rax*1+0x0]
    24ea:	00 00 00 00 
    24ee:	66 66 2e 0f 1f 84 00 	data16 nop WORD PTR cs:[rax+rax*1+0x0]
    24f5:	00 00 00 00 
    24f9:	66 66 2e 0f 1f 84 00 	data16 nop WORD PTR cs:[rax+rax*1+0x0]
    2500:	00 00 00 00 
    2504:	66 66 2e 0f 1f 84 00 	data16 nop WORD PTR cs:[rax+rax*1+0x0]
    250b:	00 00 00 00 
    250f:	66 66 2e 0f 1f 84 00 	data16 nop WORD PTR cs:[rax+rax*1+0x0]
    2516:	00 00 00 00 
    251a:	66 66 2e 0f 1f 84 00 	data16 nop WORD PTR cs:[rax+rax*1+0x0]
    2521:	00 00 00 00 
    2525:	66 66 2e 0f 1f 84 00 	data16 nop WORD PTR cs:[rax+rax*1+0x0]
    252c:	00 00 00 00 
    2530:	66 66 2e 0f 1f 84 00 	data16 nop WORD PTR cs:[rax+rax*1+0x0]
    2537:	00 00 00 00 
    253b:	66 66 2e 0f 1f 84 00 	data16 nop WORD PTR cs:[rax+rax*1+0x0]
    2542:	00 00 00 00 
    2546:	66 66 2e 0f 1f 84 00 	data16 nop WORD PTR cs:[rax+rax*1+0x0]
    254d:	00 00 00 00 
    2551:	66 66 2e 0f 1f 84 00 	data16 nop WORD PTR cs:[rax+rax*1+0x0]
    2558:	00 00 00 00 
    255c:	66 66 2e 0f 1f 84 00 	data16 nop WORD PTR cs:[rax+rax*1+0x0]
    2563:	00 00 00 00 
    2567:	66 66 2e 0f 1f 84 00 	data16 nop WORD PTR cs:[rax+rax*1+0x0]
    256e:	00 00 00 00 
    2572:	66 66 2e 0f 1f 84 00 	data16 nop WORD PTR cs:[rax+rax*1+0x0]
    2579:	00 00 00 00 
    257d:	66 66 2e 0f 1f 84 00 	data16 nop WORD PTR cs:[rax+rax*1+0x0]
    2584:	00 00 00 00 
    2588:	66 66 2e 0f 1f 84 00 	data16 nop WORD PTR cs:[rax+rax*1+0x0]
    258f:	00 00 00 00 
    2593:	66 66 2e 0f 1f 84 00 	data16 nop WORD PTR cs:[rax+rax*1+0x0]
    259a:	00 00 00 00 
    259e:	66 66 2e 0f 1f 84 00 	data16 nop WORD PTR cs:[rax+rax*1+0x0]
    25a5:	00 00 00 00 
    25a9:	66 66 2e 0f 1f 84 00 	data16 nop WORD PTR cs:[rax+rax*1+0x0]
    25b0:	00 00 00 00 
    25b4:	66 66 2e 0f 1f 84 00 	data16 nop WORD PTR cs:[rax+rax*1+0x0]
    25bb:	00 00 00 00 
    25bf:	66 66 2e 0f 1f 84 00 	data16 nop WORD PTR cs:[rax+rax*1+0x0]
    25c6:	00 00 00 00 
    25ca:	66 66 2e 0f 1f 84 00 	data16 nop WORD PTR cs:[rax+rax*1+0x0]
    25d1:	00 00 00 00 
    25d5:	66 66 2e 0f 1f 84 00 	data16 nop WORD PTR cs:[rax+rax*1+0x0]
    25dc:	00 00 00 00 
    25e0:	66 66 2e 0f 1f 84 00 	data16 nop WORD PTR cs:[rax+rax*1+0x0]
    25e7:	00 00 00 00 
    25eb:	66 66 2e 0f 1f 84 00 	data16 nop WORD PTR cs:[rax+rax*1+0x0]
    25f2:	00 00 00 00 
    25f6:	66 2e 0f 1f 84 00 00 	nop    WORD PTR cs:[rax+rax*1+0x0]
    25fd:	00 00 00 

0000000000002600 <function_10()>:

void function_10()
{
    2600:	f3 0f 1e fa          	endbr64 
    2604:	55                   	push   rbp
    2605:	48 89 e5             	mov    rbp,rsp
    int i = 0;
    2608:	c7 45 fc 00 00 00 00 	mov    DWORD PTR [rbp-0x4],0x0
    for (int j = 0; j < 10; j++)
    260f:	c7 45 f8 00 00 00 00 	mov    DWORD PTR [rbp-0x8],0x0
    2616:	83 7d f8 09          	cmp    DWORD PTR [rbp-0x8],0x9
    261a:	7f 0f                	jg     262b <function_10()+0x2b>
    {
        i = j + 1;
    261c:	8b 45 f8             	mov    eax,DWORD PTR [rbp-0x8]
    261f:	83 c0 01             	add    eax,0x1
    2622:	89 45 fc             	mov    DWORD PTR [rbp-0x4],eax
    for (int j = 0; j < 10; j++)
    2625:	83 45 f8 01          	add    DWORD PTR [rbp-0x8],0x1
    2629:	eb eb                	jmp    2616 <function_10()+0x16>
    }
}
    262b:	90                   	nop
    262c:	5d                   	pop    rbp
    262d:	c3                   	ret    
    262e:	e9 cd 01 00 00       	jmp    2800 <function_11()>
    2633:	66 66 2e 0f 1f 84 00 	data16 nop WORD PTR cs:[rax+rax*1+0x0]
    263a:	00 00 00 00 
    263e:	66 66 2e 0f 1f 84 00 	data16 nop WORD PTR cs:[rax+rax*1+0x0]
    2645:	00 00 00 00 
    2649:	66 66 2e 0f 1f 84 00 	data16 nop WORD PTR cs:[rax+rax*1+0x0]
    2650:	00 00 00 00 
    2654:	66 66 2e 0f 1f 84 00 	data16 nop WORD PTR cs:[rax+rax*1+0x0]
    265b:	00 00 00 00 
    265f:	66 66 2e 0f 1f 84 00 	data16 nop WORD PTR cs:[rax+rax*1+0x0]
    2666:	00 00 00 00 
    266a:	66 66 2e 0f 1f 84 00 	data16 nop WORD PTR cs:[rax+rax*1+0x0]
    2671:	00 00 00 00 
    2675:	66 66 2e 0f 1f 84 00 	data16 nop WORD PTR cs:[rax+rax*1+0x0]
    267c:	00 00 00 00 
    2680:	66 66 2e 0f 1f 84 00 	data16 nop WORD PTR cs:[rax+rax*1+0x0]
    2687:	00 00 00 00 
    268b:	66 66 2e 0f 1f 84 00 	data16 nop WORD PTR cs:[rax+rax*1+0x0]
    2692:	00 00 00 00 
    2696:	66 66 2e 0f 1f 84 00 	data16 nop WORD PTR cs:[rax+rax*1+0x0]
    269d:	00 00 00 00 
    26a1:	66 66 2e 0f 1f 84 00 	data16 nop WORD PTR cs:[rax+rax*1+0x0]
    26a8:	00 00 00 00 
    26ac:	66 66 2e 0f 1f 84 00 	data16 nop WORD PTR cs:[rax+rax*1+0x0]
    26b3:	00 00 00 00 
    26b7:	66 66 2e 0f 1f 84 00 	data16 nop WORD PTR cs:[rax+rax*1+0x0]
    26be:	00 00 00 00 
    26c2:	66 66 2e 0f 1f 84 00 	data16 nop WORD PTR cs:[rax+rax*1+0x0]
    26c9:	00 00 00 00 
    26cd:	66 66 2e 0f 1f 84 00 	data16 nop WORD PTR cs:[rax+rax*1+0x0]
    26d4:	00 00 00 00 
    26d8:	66 66 2e 0f 1f 84 00 	data16 nop WORD PTR cs:[rax+rax*1+0x0]
    26df:	00 00 00 00 
    26e3:	66 66 2e 0f 1f 84 00 	data16 nop WORD PTR cs:[rax+rax*1+0x0]
    26ea:	00 00 00 00 
    26ee:	66 66 2e 0f 1f 84 00 	data16 nop WORD PTR cs:[rax+rax*1+0x0]
    26f5:	00 00 00 00 
    26f9:	66 66 2e 0f 1f 84 00 	data16 nop WORD PTR cs:[rax+rax*1+0x0]
    2700:	00 00 00 00 
    2704:	66 66 2e 0f 1f 84 00 	data16 nop WORD PTR cs:[rax+rax*1+0x0]
    270b:	00 00 00 00 
    270f:	66 66 2e 0f 1f 84 00 	data16 nop WORD PTR cs:[rax+rax*1+0x0]
    2716:	00 00 00 00 
    271a:	66 66 2e 0f 1f 84 00 	data16 nop WORD PTR cs:[rax+rax*1+0x0]
    2721:	00 00 00 00 
    2725:	66 66 2e 0f 1f 84 00 	data16 nop WORD PTR cs:[rax+rax*1+0x0]
    272c:	00 00 00 00 
    2730:	66 66 2e 0f 1f 84 00 	data16 nop WORD PTR cs:[rax+rax*1+0x0]
    2737:	00 00 00 00 
    273b:	66 66 2e 0f 1f 84 00 	data16 nop WORD PTR cs:[rax+rax*1+0x0]
    2742:	00 00 00 00 
    2746:	66 66 2e 0f 1f 84 00 	data16 nop WORD PTR cs:[rax+rax*1+0x0]
    274d:	00 00 00 00 
    2751:	66 66 2e 0f 1f 84 00 	data16 nop WORD PTR cs:[rax+rax*1+0x0]
    2758:	00 00 00 00 
    275c:	66 66 2e 0f 1f 84 00 	data16 nop WORD PTR cs:[rax+rax*1+0x0]
    2763:	00 00 00 00 
    2767:	66 66 2e 0f 1f 84 00 	data16 nop WORD PTR cs:[rax+rax*1+0x0]
    276e:	00 00 00 00 
    2772:	66 66 2e 0f 1f 84 00 	data16 nop WORD PTR cs:[rax+rax*1+0x0]
    2779:	00 00 00 00 
    277d:	66 66 2e 0f 1f 84 00 	data16 nop WORD PTR cs:[rax+rax*1+0x0]
    2784:	00 00 00 00 
    2788:	66 66 2e 0f 1f 84 00 	data16 nop WORD PTR cs:[rax+rax*1+0x0]
    278f:	00 00 00 00 
    2793:	66 66 2e 0f 1f 84 00 	data16 nop WORD PTR cs:[rax+rax*1+0x0]
    279a:	00 00 00 00 
    279e:	66 66 2e 0f 1f 84 00 	data16 nop WORD PTR cs:[rax+rax*1+0x0]
    27a5:	00 00 00 00 
    27a9:	66 66 2e 0f 1f 84 00 	data16 nop WORD PTR cs:[rax+rax*1+0x0]
    27b0:	00 00 00 00 
    27b4:	66 66 2e 0f 1f 84 00 	data16 nop WORD PTR cs:[rax+rax*1+0x0]
    27bb:	00 00 00 00 
    27bf:	66 66 2e 0f 1f 84 00 	data16 nop WORD PTR cs:[rax+rax*1+0x0]
    27c6:	00 00 00 00 
    27ca:	66 66 2e 0f 1f 84 00 	data16 nop WORD PTR cs:[rax+rax*1+0x0]
    27d1:	00 00 00 00 
    27d5:	66 66 2e 0f 1f 84 00 	data16 nop WORD PTR cs:[rax+rax*1+0x0]
    27dc:	00 00 00 00 
    27e0:	66 66 2e 0f 1f 84 00 	data16 nop WORD PTR cs:[rax+rax*1+0x0]
    27e7:	00 00 00 00 
    27eb:	66 66 2e 0f 1f 84 00 	data16 nop WORD PTR cs:[rax+rax*1+0x0]
    27f2:	00 00 00 00 
    27f6:	66 2e 0f 1f 84 00 00 	nop    WORD PTR cs:[rax+rax*1+0x0]
    27fd:	00 00 00 

0000000000002800 <function_11()>:

void function_11()
{
    2800:	f3 0f 1e fa          	endbr64 
    2804:	55                   	push   rbp
    2805:	48 89 e5             	mov    rbp,rsp
    int i = 0;
    2808:	c7 45 fc 00 00 00 00 	mov    DWORD PTR [rbp-0x4],0x0
    for (int j = 0; j < 10; j++)
    280f:	c7 45 f8 00 00 00 00 	mov    DWORD PTR [rbp-0x8],0x0
    2816:	83 7d f8 09          	cmp    DWORD PTR [rbp-0x8],0x9
    281a:	7f 0f                	jg     282b <function_11()+0x2b>
    {
        i = j + 1;
    281c:	8b 45 f8             	mov    eax,DWORD PTR [rbp-0x8]
    281f:	83 c0 01             	add    eax,0x1
    2822:	89 45 fc             	mov    DWORD PTR [rbp-0x4],eax
    for (int j = 0; j < 10; j++)
    2825:	83 45 f8 01          	add    DWORD PTR [rbp-0x8],0x1
    2829:	eb eb                	jmp    2816 <function_11()+0x16>
    }
}
    282b:	90                   	nop
    282c:	5d                   	pop    rbp
    282d:	c3                   	ret    
    282e:	e9 cd 01 00 00       	jmp    2a00 <function_12()>
    2833:	66 66 2e 0f 1f 84 00 	data16 nop WORD PTR cs:[rax+rax*1+0x0]
    283a:	00 00 00 00 
    283e:	66 66 2e 0f 1f 84 00 	data16 nop WORD PTR cs:[rax+rax*1+0x0]
    2845:	00 00 00 00 
    2849:	66 66 2e 0f 1f 84 00 	data16 nop WORD PTR cs:[rax+rax*1+0x0]
    2850:	00 00 00 00 
    2854:	66 66 2e 0f 1f 84 00 	data16 nop WORD PTR cs:[rax+rax*1+0x0]
    285b:	00 00 00 00 
    285f:	66 66 2e 0f 1f 84 00 	data16 nop WORD PTR cs:[rax+rax*1+0x0]
    2866:	00 00 00 00 
    286a:	66 66 2e 0f 1f 84 00 	data16 nop WORD PTR cs:[rax+rax*1+0x0]
    2871:	00 00 00 00 
    2875:	66 66 2e 0f 1f 84 00 	data16 nop WORD PTR cs:[rax+rax*1+0x0]
    287c:	00 00 00 00 
    2880:	66 66 2e 0f 1f 84 00 	data16 nop WORD PTR cs:[rax+rax*1+0x0]
    2887:	00 00 00 00 
    288b:	66 66 2e 0f 1f 84 00 	data16 nop WORD PTR cs:[rax+rax*1+0x0]
    2892:	00 00 00 00 
    2896:	66 66 2e 0f 1f 84 00 	data16 nop WORD PTR cs:[rax+rax*1+0x0]
    289d:	00 00 00 00 
    28a1:	66 66 2e 0f 1f 84 00 	data16 nop WORD PTR cs:[rax+rax*1+0x0]
    28a8:	00 00 00 00 
    28ac:	66 66 2e 0f 1f 84 00 	data16 nop WORD PTR cs:[rax+rax*1+0x0]
    28b3:	00 00 00 00 
    28b7:	66 66 2e 0f 1f 84 00 	data16 nop WORD PTR cs:[rax+rax*1+0x0]
    28be:	00 00 00 00 
    28c2:	66 66 2e 0f 1f 84 00 	data16 nop WORD PTR cs:[rax+rax*1+0x0]
    28c9:	00 00 00 00 
    28cd:	66 66 2e 0f 1f 84 00 	data16 nop WORD PTR cs:[rax+rax*1+0x0]
    28d4:	00 00 00 00 
    28d8:	66 66 2e 0f 1f 84 00 	data16 nop WORD PTR cs:[rax+rax*1+0x0]
    28df:	00 00 00 00 
    28e3:	66 66 2e 0f 1f 84 00 	data16 nop WORD PTR cs:[rax+rax*1+0x0]
    28ea:	00 00 00 00 
    28ee:	66 66 2e 0f 1f 84 00 	data16 nop WORD PTR cs:[rax+rax*1+0x0]
    28f5:	00 00 00 00 
    28f9:	66 66 2e 0f 1f 84 00 	data16 nop WORD PTR cs:[rax+rax*1+0x0]
    2900:	00 00 00 00 
    2904:	66 66 2e 0f 1f 84 00 	data16 nop WORD PTR cs:[rax+rax*1+0x0]
    290b:	00 00 00 00 
    290f:	66 66 2e 0f 1f 84 00 	data16 nop WORD PTR cs:[rax+rax*1+0x0]
    2916:	00 00 00 00 
    291a:	66 66 2e 0f 1f 84 00 	data16 nop WORD PTR cs:[rax+rax*1+0x0]
    2921:	00 00 00 00 
    2925:	66 66 2e 0f 1f 84 00 	data16 nop WORD PTR cs:[rax+rax*1+0x0]
    292c:	00 00 00 00 
    2930:	66 66 2e 0f 1f 84 00 	data16 nop WORD PTR cs:[rax+rax*1+0x0]
    2937:	00 00 00 00 
    293b:	66 66 2e 0f 1f 84 00 	data16 nop WORD PTR cs:[rax+rax*1+0x0]
    2942:	00 00 00 00 
    2946:	66 66 2e 0f 1f 84 00 	data16 nop WORD PTR cs:[rax+rax*1+0x0]
    294d:	00 00 00 00 
    2951:	66 66 2e 0f 1f 84 00 	data16 nop WORD PTR cs:[rax+rax*1+0x0]
    2958:	00 00 00 00 
    295c:	66 66 2e 0f 1f 84 00 	data16 nop WORD PTR cs:[rax+rax*1+0x0]
    2963:	00 00 00 00 
    2967:	66 66 2e 0f 1f 84 00 	data16 nop WORD PTR cs:[rax+rax*1+0x0]
    296e:	00 00 00 00 
    2972:	66 66 2e 0f 1f 84 00 	data16 nop WORD PTR cs:[rax+rax*1+0x0]
    2979:	00 00 00 00 
    297d:	66 66 2e 0f 1f 84 00 	data16 nop WORD PTR cs:[rax+rax*1+0x0]
    2984:	00 00 00 00 
    2988:	66 66 2e 0f 1f 84 00 	data16 nop WORD PTR cs:[rax+rax*1+0x0]
    298f:	00 00 00 00 
    2993:	66 66 2e 0f 1f 84 00 	data16 nop WORD PTR cs:[rax+rax*1+0x0]
    299a:	00 00 00 00 
    299e:	66 66 2e 0f 1f 84 00 	data16 nop WORD PTR cs:[rax+rax*1+0x0]
    29a5:	00 00 00 00 
    29a9:	66 66 2e 0f 1f 84 00 	data16 nop WORD PTR cs:[rax+rax*1+0x0]
    29b0:	00 00 00 00 
    29b4:	66 66 2e 0f 1f 84 00 	data16 nop WORD PTR cs:[rax+rax*1+0x0]
    29bb:	00 00 00 00 
    29bf:	66 66 2e 0f 1f 84 00 	data16 nop WORD PTR cs:[rax+rax*1+0x0]
    29c6:	00 00 00 00 
    29ca:	66 66 2e 0f 1f 84 00 	data16 nop WORD PTR cs:[rax+rax*1+0x0]
    29d1:	00 00 00 00 
    29d5:	66 66 2e 0f 1f 84 00 	data16 nop WORD PTR cs:[rax+rax*1+0x0]
    29dc:	00 00 00 00 
    29e0:	66 66 2e 0f 1f 84 00 	data16 nop WORD PTR cs:[rax+rax*1+0x0]
    29e7:	00 00 00 00 
    29eb:	66 66 2e 0f 1f 84 00 	data16 nop WORD PTR cs:[rax+rax*1+0x0]
    29f2:	00 00 00 00 
    29f6:	66 2e 0f 1f 84 00 00 	nop    WORD PTR cs:[rax+rax*1+0x0]
    29fd:	00 00 00 

0000000000002a00 <function_12()>:

void function_12()
{
    2a00:	f3 0f 1e fa          	endbr64 
    2a04:	55                   	push   rbp
    2a05:	48 89 e5             	mov    rbp,rsp
    int i = 0;
    2a08:	c7 45 fc 00 00 00 00 	mov    DWORD PTR [rbp-0x4],0x0
    for (int j = 0; j < 10; j++)
    2a0f:	c7 45 f8 00 00 00 00 	mov    DWORD PTR [rbp-0x8],0x0
    2a16:	83 7d f8 09          	cmp    DWORD PTR [rbp-0x8],0x9
    2a1a:	7f 0f                	jg     2a2b <function_12()+0x2b>
    {
        i = j + 1;
    2a1c:	8b 45 f8             	mov    eax,DWORD PTR [rbp-0x8]
    2a1f:	83 c0 01             	add    eax,0x1
    2a22:	89 45 fc             	mov    DWORD PTR [rbp-0x4],eax
    for (int j = 0; j < 10; j++)
    2a25:	83 45 f8 01          	add    DWORD PTR [rbp-0x8],0x1
    2a29:	eb eb                	jmp    2a16 <function_12()+0x16>
    }
}
    2a2b:	90                   	nop
    2a2c:	5d                   	pop    rbp
    2a2d:	c3                   	ret    
    2a2e:	e9 cd 01 00 00       	jmp    2c00 <function_13()>
    2a33:	66 66 2e 0f 1f 84 00 	data16 nop WORD PTR cs:[rax+rax*1+0x0]
    2a3a:	00 00 00 00 
    2a3e:	66 66 2e 0f 1f 84 00 	data16 nop WORD PTR cs:[rax+rax*1+0x0]
    2a45:	00 00 00 00 
    2a49:	66 66 2e 0f 1f 84 00 	data16 nop WORD PTR cs:[rax+rax*1+0x0]
    2a50:	00 00 00 00 
    2a54:	66 66 2e 0f 1f 84 00 	data16 nop WORD PTR cs:[rax+rax*1+0x0]
    2a5b:	00 00 00 00 
    2a5f:	66 66 2e 0f 1f 84 00 	data16 nop WORD PTR cs:[rax+rax*1+0x0]
    2a66:	00 00 00 00 
    2a6a:	66 66 2e 0f 1f 84 00 	data16 nop WORD PTR cs:[rax+rax*1+0x0]
    2a71:	00 00 00 00 
    2a75:	66 66 2e 0f 1f 84 00 	data16 nop WORD PTR cs:[rax+rax*1+0x0]
    2a7c:	00 00 00 00 
    2a80:	66 66 2e 0f 1f 84 00 	data16 nop WORD PTR cs:[rax+rax*1+0x0]
    2a87:	00 00 00 00 
    2a8b:	66 66 2e 0f 1f 84 00 	data16 nop WORD PTR cs:[rax+rax*1+0x0]
    2a92:	00 00 00 00 
    2a96:	66 66 2e 0f 1f 84 00 	data16 nop WORD PTR cs:[rax+rax*1+0x0]
    2a9d:	00 00 00 00 
    2aa1:	66 66 2e 0f 1f 84 00 	data16 nop WORD PTR cs:[rax+rax*1+0x0]
    2aa8:	00 00 00 00 
    2aac:	66 66 2e 0f 1f 84 00 	data16 nop WORD PTR cs:[rax+rax*1+0x0]
    2ab3:	00 00 00 00 
    2ab7:	66 66 2e 0f 1f 84 00 	data16 nop WORD PTR cs:[rax+rax*1+0x0]
    2abe:	00 00 00 00 
    2ac2:	66 66 2e 0f 1f 84 00 	data16 nop WORD PTR cs:[rax+rax*1+0x0]
    2ac9:	00 00 00 00 
    2acd:	66 66 2e 0f 1f 84 00 	data16 nop WORD PTR cs:[rax+rax*1+0x0]
    2ad4:	00 00 00 00 
    2ad8:	66 66 2e 0f 1f 84 00 	data16 nop WORD PTR cs:[rax+rax*1+0x0]
    2adf:	00 00 00 00 
    2ae3:	66 66 2e 0f 1f 84 00 	data16 nop WORD PTR cs:[rax+rax*1+0x0]
    2aea:	00 00 00 00 
    2aee:	66 66 2e 0f 1f 84 00 	data16 nop WORD PTR cs:[rax+rax*1+0x0]
    2af5:	00 00 00 00 
    2af9:	66 66 2e 0f 1f 84 00 	data16 nop WORD PTR cs:[rax+rax*1+0x0]
    2b00:	00 00 00 00 
    2b04:	66 66 2e 0f 1f 84 00 	data16 nop WORD PTR cs:[rax+rax*1+0x0]
    2b0b:	00 00 00 00 
    2b0f:	66 66 2e 0f 1f 84 00 	data16 nop WORD PTR cs:[rax+rax*1+0x0]
    2b16:	00 00 00 00 
    2b1a:	66 66 2e 0f 1f 84 00 	data16 nop WORD PTR cs:[rax+rax*1+0x0]
    2b21:	00 00 00 00 
    2b25:	66 66 2e 0f 1f 84 00 	data16 nop WORD PTR cs:[rax+rax*1+0x0]
    2b2c:	00 00 00 00 
    2b30:	66 66 2e 0f 1f 84 00 	data16 nop WORD PTR cs:[rax+rax*1+0x0]
    2b37:	00 00 00 00 
    2b3b:	66 66 2e 0f 1f 84 00 	data16 nop WORD PTR cs:[rax+rax*1+0x0]
    2b42:	00 00 00 00 
    2b46:	66 66 2e 0f 1f 84 00 	data16 nop WORD PTR cs:[rax+rax*1+0x0]
    2b4d:	00 00 00 00 
    2b51:	66 66 2e 0f 1f 84 00 	data16 nop WORD PTR cs:[rax+rax*1+0x0]
    2b58:	00 00 00 00 
    2b5c:	66 66 2e 0f 1f 84 00 	data16 nop WORD PTR cs:[rax+rax*1+0x0]
    2b63:	00 00 00 00 
    2b67:	66 66 2e 0f 1f 84 00 	data16 nop WORD PTR cs:[rax+rax*1+0x0]
    2b6e:	00 00 00 00 
    2b72:	66 66 2e 0f 1f 84 00 	data16 nop WORD PTR cs:[rax+rax*1+0x0]
    2b79:	00 00 00 00 
    2b7d:	66 66 2e 0f 1f 84 00 	data16 nop WORD PTR cs:[rax+rax*1+0x0]
    2b84:	00 00 00 00 
    2b88:	66 66 2e 0f 1f 84 00 	data16 nop WORD PTR cs:[rax+rax*1+0x0]
    2b8f:	00 00 00 00 
    2b93:	66 66 2e 0f 1f 84 00 	data16 nop WORD PTR cs:[rax+rax*1+0x0]
    2b9a:	00 00 00 00 
    2b9e:	66 66 2e 0f 1f 84 00 	data16 nop WORD PTR cs:[rax+rax*1+0x0]
    2ba5:	00 00 00 00 
    2ba9:	66 66 2e 0f 1f 84 00 	data16 nop WORD PTR cs:[rax+rax*1+0x0]
    2bb0:	00 00 00 00 
    2bb4:	66 66 2e 0f 1f 84 00 	data16 nop WORD PTR cs:[rax+rax*1+0x0]
    2bbb:	00 00 00 00 
    2bbf:	66 66 2e 0f 1f 84 00 	data16 nop WORD PTR cs:[rax+rax*1+0x0]
    2bc6:	00 00 00 00 
    2bca:	66 66 2e 0f 1f 84 00 	data16 nop WORD PTR cs:[rax+rax*1+0x0]
    2bd1:	00 00 00 00 
    2bd5:	66 66 2e 0f 1f 84 00 	data16 nop WORD PTR cs:[rax+rax*1+0x0]
    2bdc:	00 00 00 00 
    2be0:	66 66 2e 0f 1f 84 00 	data16 nop WORD PTR cs:[rax+rax*1+0x0]
    2be7:	00 00 00 00 
    2beb:	66 66 2e 0f 1f 84 00 	data16 nop WORD PTR cs:[rax+rax*1+0x0]
    2bf2:	00 00 00 00 
    2bf6:	66 2e 0f 1f 84 00 00 	nop    WORD PTR cs:[rax+rax*1+0x0]
    2bfd:	00 00 00 

0000000000002c00 <function_13()>:

void function_13()
{
    2c00:	f3 0f 1e fa          	endbr64 
    2c04:	55                   	push   rbp
    2c05:	48 89 e5             	mov    rbp,rsp
    int i = 0;
    2c08:	c7 45 fc 00 00 00 00 	mov    DWORD PTR [rbp-0x4],0x0
    for (int j = 0; j < 10; j++)
    2c0f:	c7 45 f8 00 00 00 00 	mov    DWORD PTR [rbp-0x8],0x0
    2c16:	83 7d f8 09          	cmp    DWORD PTR [rbp-0x8],0x9
    2c1a:	7f 0f                	jg     2c2b <function_13()+0x2b>
    {
        i = j + 1;
    2c1c:	8b 45 f8             	mov    eax,DWORD PTR [rbp-0x8]
    2c1f:	83 c0 01             	add    eax,0x1
    2c22:	89 45 fc             	mov    DWORD PTR [rbp-0x4],eax
    for (int j = 0; j < 10; j++)
    2c25:	83 45 f8 01          	add    DWORD PTR [rbp-0x8],0x1
    2c29:	eb eb                	jmp    2c16 <function_13()+0x16>
    }
}
    2c2b:	90                   	nop
    2c2c:	5d                   	pop    rbp
    2c2d:	c3                   	ret    
    2c2e:	e9 cd 01 00 00       	jmp    2e00 <function_14()>
    2c33:	66 66 2e 0f 1f 84 00 	data16 nop WORD PTR cs:[rax+rax*1+0x0]
    2c3a:	00 00 00 00 
    2c3e:	66 66 2e 0f 1f 84 00 	data16 nop WORD PTR cs:[rax+rax*1+0x0]
    2c45:	00 00 00 00 
    2c49:	66 66 2e 0f 1f 84 00 	data16 nop WORD PTR cs:[rax+rax*1+0x0]
    2c50:	00 00 00 00 
    2c54:	66 66 2e 0f 1f 84 00 	data16 nop WORD PTR cs:[rax+rax*1+0x0]
    2c5b:	00 00 00 00 
    2c5f:	66 66 2e 0f 1f 84 00 	data16 nop WORD PTR cs:[rax+rax*1+0x0]
    2c66:	00 00 00 00 
    2c6a:	66 66 2e 0f 1f 84 00 	data16 nop WORD PTR cs:[rax+rax*1+0x0]
    2c71:	00 00 00 00 
    2c75:	66 66 2e 0f 1f 84 00 	data16 nop WORD PTR cs:[rax+rax*1+0x0]
    2c7c:	00 00 00 00 
    2c80:	66 66 2e 0f 1f 84 00 	data16 nop WORD PTR cs:[rax+rax*1+0x0]
    2c87:	00 00 00 00 
    2c8b:	66 66 2e 0f 1f 84 00 	data16 nop WORD PTR cs:[rax+rax*1+0x0]
    2c92:	00 00 00 00 
    2c96:	66 66 2e 0f 1f 84 00 	data16 nop WORD PTR cs:[rax+rax*1+0x0]
    2c9d:	00 00 00 00 
    2ca1:	66 66 2e 0f 1f 84 00 	data16 nop WORD PTR cs:[rax+rax*1+0x0]
    2ca8:	00 00 00 00 
    2cac:	66 66 2e 0f 1f 84 00 	data16 nop WORD PTR cs:[rax+rax*1+0x0]
    2cb3:	00 00 00 00 
    2cb7:	66 66 2e 0f 1f 84 00 	data16 nop WORD PTR cs:[rax+rax*1+0x0]
    2cbe:	00 00 00 00 
    2cc2:	66 66 2e 0f 1f 84 00 	data16 nop WORD PTR cs:[rax+rax*1+0x0]
    2cc9:	00 00 00 00 
    2ccd:	66 66 2e 0f 1f 84 00 	data16 nop WORD PTR cs:[rax+rax*1+0x0]
    2cd4:	00 00 00 00 
    2cd8:	66 66 2e 0f 1f 84 00 	data16 nop WORD PTR cs:[rax+rax*1+0x0]
    2cdf:	00 00 00 00 
    2ce3:	66 66 2e 0f 1f 84 00 	data16 nop WORD PTR cs:[rax+rax*1+0x0]
    2cea:	00 00 00 00 
    2cee:	66 66 2e 0f 1f 84 00 	data16 nop WORD PTR cs:[rax+rax*1+0x0]
    2cf5:	00 00 00 00 
    2cf9:	66 66 2e 0f 1f 84 00 	data16 nop WORD PTR cs:[rax+rax*1+0x0]
    2d00:	00 00 00 00 
    2d04:	66 66 2e 0f 1f 84 00 	data16 nop WORD PTR cs:[rax+rax*1+0x0]
    2d0b:	00 00 00 00 
    2d0f:	66 66 2e 0f 1f 84 00 	data16 nop WORD PTR cs:[rax+rax*1+0x0]
    2d16:	00 00 00 00 
    2d1a:	66 66 2e 0f 1f 84 00 	data16 nop WORD PTR cs:[rax+rax*1+0x0]
    2d21:	00 00 00 00 
    2d25:	66 66 2e 0f 1f 84 00 	data16 nop WORD PTR cs:[rax+rax*1+0x0]
    2d2c:	00 00 00 00 
    2d30:	66 66 2e 0f 1f 84 00 	data16 nop WORD PTR cs:[rax+rax*1+0x0]
    2d37:	00 00 00 00 
    2d3b:	66 66 2e 0f 1f 84 00 	data16 nop WORD PTR cs:[rax+rax*1+0x0]
    2d42:	00 00 00 00 
    2d46:	66 66 2e 0f 1f 84 00 	data16 nop WORD PTR cs:[rax+rax*1+0x0]
    2d4d:	00 00 00 00 
    2d51:	66 66 2e 0f 1f 84 00 	data16 nop WORD PTR cs:[rax+rax*1+0x0]
    2d58:	00 00 00 00 
    2d5c:	66 66 2e 0f 1f 84 00 	data16 nop WORD PTR cs:[rax+rax*1+0x0]
    2d63:	00 00 00 00 
    2d67:	66 66 2e 0f 1f 84 00 	data16 nop WORD PTR cs:[rax+rax*1+0x0]
    2d6e:	00 00 00 00 
    2d72:	66 66 2e 0f 1f 84 00 	data16 nop WORD PTR cs:[rax+rax*1+0x0]
    2d79:	00 00 00 00 
    2d7d:	66 66 2e 0f 1f 84 00 	data16 nop WORD PTR cs:[rax+rax*1+0x0]
    2d84:	00 00 00 00 
    2d88:	66 66 2e 0f 1f 84 00 	data16 nop WORD PTR cs:[rax+rax*1+0x0]
    2d8f:	00 00 00 00 
    2d93:	66 66 2e 0f 1f 84 00 	data16 nop WORD PTR cs:[rax+rax*1+0x0]
    2d9a:	00 00 00 00 
    2d9e:	66 66 2e 0f 1f 84 00 	data16 nop WORD PTR cs:[rax+rax*1+0x0]
    2da5:	00 00 00 00 
    2da9:	66 66 2e 0f 1f 84 00 	data16 nop WORD PTR cs:[rax+rax*1+0x0]
    2db0:	00 00 00 00 
    2db4:	66 66 2e 0f 1f 84 00 	data16 nop WORD PTR cs:[rax+rax*1+0x0]
    2dbb:	00 00 00 00 
    2dbf:	66 66 2e 0f 1f 84 00 	data16 nop WORD PTR cs:[rax+rax*1+0x0]
    2dc6:	00 00 00 00 
    2dca:	66 66 2e 0f 1f 84 00 	data16 nop WORD PTR cs:[rax+rax*1+0x0]
    2dd1:	00 00 00 00 
    2dd5:	66 66 2e 0f 1f 84 00 	data16 nop WORD PTR cs:[rax+rax*1+0x0]
    2ddc:	00 00 00 00 
    2de0:	66 66 2e 0f 1f 84 00 	data16 nop WORD PTR cs:[rax+rax*1+0x0]
    2de7:	00 00 00 00 
    2deb:	66 66 2e 0f 1f 84 00 	data16 nop WORD PTR cs:[rax+rax*1+0x0]
    2df2:	00 00 00 00 
    2df6:	66 2e 0f 1f 84 00 00 	nop    WORD PTR cs:[rax+rax*1+0x0]
    2dfd:	00 00 00 

0000000000002e00 <function_14()>:

void function_14()
{
    2e00:	f3 0f 1e fa          	endbr64 
    2e04:	55                   	push   rbp
    2e05:	48 89 e5             	mov    rbp,rsp
    int i = 0;
    2e08:	c7 45 fc 00 00 00 00 	mov    DWORD PTR [rbp-0x4],0x0
    for (int j = 0; j < 10; j++)
    2e0f:	c7 45 f8 00 00 00 00 	mov    DWORD PTR [rbp-0x8],0x0
    2e16:	83 7d f8 09          	cmp    DWORD PTR [rbp-0x8],0x9
    2e1a:	7f 0f                	jg     2e2b <function_14()+0x2b>
    {
        i = j + 1;
    2e1c:	8b 45 f8             	mov    eax,DWORD PTR [rbp-0x8]
    2e1f:	83 c0 01             	add    eax,0x1
    2e22:	89 45 fc             	mov    DWORD PTR [rbp-0x4],eax
    for (int j = 0; j < 10; j++)
    2e25:	83 45 f8 01          	add    DWORD PTR [rbp-0x8],0x1
    2e29:	eb eb                	jmp    2e16 <function_14()+0x16>
    }
}
    2e2b:	90                   	nop
    2e2c:	5d                   	pop    rbp
    2e2d:	c3                   	ret    
    2e2e:	e9 cd 01 00 00       	jmp    3000 <function_15()>
    2e33:	66 66 2e 0f 1f 84 00 	data16 nop WORD PTR cs:[rax+rax*1+0x0]
    2e3a:	00 00 00 00 
    2e3e:	66 66 2e 0f 1f 84 00 	data16 nop WORD PTR cs:[rax+rax*1+0x0]
    2e45:	00 00 00 00 
    2e49:	66 66 2e 0f 1f 84 00 	data16 nop WORD PTR cs:[rax+rax*1+0x0]
    2e50:	00 00 00 00 
    2e54:	66 66 2e 0f 1f 84 00 	data16 nop WORD PTR cs:[rax+rax*1+0x0]
    2e5b:	00 00 00 00 
    2e5f:	66 66 2e 0f 1f 84 00 	data16 nop WORD PTR cs:[rax+rax*1+0x0]
    2e66:	00 00 00 00 
    2e6a:	66 66 2e 0f 1f 84 00 	data16 nop WORD PTR cs:[rax+rax*1+0x0]
    2e71:	00 00 00 00 
    2e75:	66 66 2e 0f 1f 84 00 	data16 nop WORD PTR cs:[rax+rax*1+0x0]
    2e7c:	00 00 00 00 
    2e80:	66 66 2e 0f 1f 84 00 	data16 nop WORD PTR cs:[rax+rax*1+0x0]
    2e87:	00 00 00 00 
    2e8b:	66 66 2e 0f 1f 84 00 	data16 nop WORD PTR cs:[rax+rax*1+0x0]
    2e92:	00 00 00 00 
    2e96:	66 66 2e 0f 1f 84 00 	data16 nop WORD PTR cs:[rax+rax*1+0x0]
    2e9d:	00 00 00 00 
    2ea1:	66 66 2e 0f 1f 84 00 	data16 nop WORD PTR cs:[rax+rax*1+0x0]
    2ea8:	00 00 00 00 
    2eac:	66 66 2e 0f 1f 84 00 	data16 nop WORD PTR cs:[rax+rax*1+0x0]
    2eb3:	00 00 00 00 
    2eb7:	66 66 2e 0f 1f 84 00 	data16 nop WORD PTR cs:[rax+rax*1+0x0]
    2ebe:	00 00 00 00 
    2ec2:	66 66 2e 0f 1f 84 00 	data16 nop WORD PTR cs:[rax+rax*1+0x0]
    2ec9:	00 00 00 00 
    2ecd:	66 66 2e 0f 1f 84 00 	data16 nop WORD PTR cs:[rax+rax*1+0x0]
    2ed4:	00 00 00 00 
    2ed8:	66 66 2e 0f 1f 84 00 	data16 nop WORD PTR cs:[rax+rax*1+0x0]
    2edf:	00 00 00 00 
    2ee3:	66 66 2e 0f 1f 84 00 	data16 nop WORD PTR cs:[rax+rax*1+0x0]
    2eea:	00 00 00 00 
    2eee:	66 66 2e 0f 1f 84 00 	data16 nop WORD PTR cs:[rax+rax*1+0x0]
    2ef5:	00 00 00 00 
    2ef9:	66 66 2e 0f 1f 84 00 	data16 nop WORD PTR cs:[rax+rax*1+0x0]
    2f00:	00 00 00 00 
    2f04:	66 66 2e 0f 1f 84 00 	data16 nop WORD PTR cs:[rax+rax*1+0x0]
    2f0b:	00 00 00 00 
    2f0f:	66 66 2e 0f 1f 84 00 	data16 nop WORD PTR cs:[rax+rax*1+0x0]
    2f16:	00 00 00 00 
    2f1a:	66 66 2e 0f 1f 84 00 	data16 nop WORD PTR cs:[rax+rax*1+0x0]
    2f21:	00 00 00 00 
    2f25:	66 66 2e 0f 1f 84 00 	data16 nop WORD PTR cs:[rax+rax*1+0x0]
    2f2c:	00 00 00 00 
    2f30:	66 66 2e 0f 1f 84 00 	data16 nop WORD PTR cs:[rax+rax*1+0x0]
    2f37:	00 00 00 00 
    2f3b:	66 66 2e 0f 1f 84 00 	data16 nop WORD PTR cs:[rax+rax*1+0x0]
    2f42:	00 00 00 00 
    2f46:	66 66 2e 0f 1f 84 00 	data16 nop WORD PTR cs:[rax+rax*1+0x0]
    2f4d:	00 00 00 00 
    2f51:	66 66 2e 0f 1f 84 00 	data16 nop WORD PTR cs:[rax+rax*1+0x0]
    2f58:	00 00 00 00 
    2f5c:	66 66 2e 0f 1f 84 00 	data16 nop WORD PTR cs:[rax+rax*1+0x0]
    2f63:	00 00 00 00 
    2f67:	66 66 2e 0f 1f 84 00 	data16 nop WORD PTR cs:[rax+rax*1+0x0]
    2f6e:	00 00 00 00 
    2f72:	66 66 2e 0f 1f 84 00 	data16 nop WORD PTR cs:[rax+rax*1+0x0]
    2f79:	00 00 00 00 
    2f7d:	66 66 2e 0f 1f 84 00 	data16 nop WORD PTR cs:[rax+rax*1+0x0]
    2f84:	00 00 00 00 
    2f88:	66 66 2e 0f 1f 84 00 	data16 nop WORD PTR cs:[rax+rax*1+0x0]
    2f8f:	00 00 00 00 
    2f93:	66 66 2e 0f 1f 84 00 	data16 nop WORD PTR cs:[rax+rax*1+0x0]
    2f9a:	00 00 00 00 
    2f9e:	66 66 2e 0f 1f 84 00 	data16 nop WORD PTR cs:[rax+rax*1+0x0]
    2fa5:	00 00 00 00 
    2fa9:	66 66 2e 0f 1f 84 00 	data16 nop WORD PTR cs:[rax+rax*1+0x0]
    2fb0:	00 00 00 00 
    2fb4:	66 66 2e 0f 1f 84 00 	data16 nop WORD PTR cs:[rax+rax*1+0x0]
    2fbb:	00 00 00 00 
    2fbf:	66 66 2e 0f 1f 84 00 	data16 nop WORD PTR cs:[rax+rax*1+0x0]
    2fc6:	00 00 00 00 
    2fca:	66 66 2e 0f 1f 84 00 	data16 nop WORD PTR cs:[rax+rax*1+0x0]
    2fd1:	00 00 00 00 
    2fd5:	66 66 2e 0f 1f 84 00 	data16 nop WORD PTR cs:[rax+rax*1+0x0]
    2fdc:	00 00 00 00 
    2fe0:	66 66 2e 0f 1f 84 00 	data16 nop WORD PTR cs:[rax+rax*1+0x0]
    2fe7:	00 00 00 00 
    2feb:	66 66 2e 0f 1f 84 00 	data16 nop WORD PTR cs:[rax+rax*1+0x0]
    2ff2:	00 00 00 00 
    2ff6:	66 2e 0f 1f 84 00 00 	nop    WORD PTR cs:[rax+rax*1+0x0]
    2ffd:	00 00 00 

0000000000003000 <function_15()>:

void function_15()
{
    3000:	f3 0f 1e fa          	endbr64 
    3004:	55                   	push   rbp
    3005:	48 89 e5             	mov    rbp,rsp
    int i = 0;
    3008:	c7 45 fc 00 00 00 00 	mov    DWORD PTR [rbp-0x4],0x0
    for (int j = 0; j < 10; j++)
    300f:	c7 45 f8 00 00 00 00 	mov    DWORD PTR [rbp-0x8],0x0
    3016:	83 7d f8 09          	cmp    DWORD PTR [rbp-0x8],0x9
    301a:	7f 0f                	jg     302b <function_15()+0x2b>
    {
        i = j + 1;
    301c:	8b 45 f8             	mov    eax,DWORD PTR [rbp-0x8]
    301f:	83 c0 01             	add    eax,0x1
    3022:	89 45 fc             	mov    DWORD PTR [rbp-0x4],eax
    for (int j = 0; j < 10; j++)
    3025:	83 45 f8 01          	add    DWORD PTR [rbp-0x8],0x1
    3029:	eb eb                	jmp    3016 <function_15()+0x16>
    }
}
    302b:	90                   	nop
    302c:	5d                   	pop    rbp
    302d:	c3                   	ret    
    302e:	e9 cd 01 00 00       	jmp    3200 <function_16()>
    3033:	66 66 2e 0f 1f 84 00 	data16 nop WORD PTR cs:[rax+rax*1+0x0]
    303a:	00 00 00 00 
    303e:	66 66 2e 0f 1f 84 00 	data16 nop WORD PTR cs:[rax+rax*1+0x0]
    3045:	00 00 00 00 
    3049:	66 66 2e 0f 1f 84 00 	data16 nop WORD PTR cs:[rax+rax*1+0x0]
    3050:	00 00 00 00 
    3054:	66 66 2e 0f 1f 84 00 	data16 nop WORD PTR cs:[rax+rax*1+0x0]
    305b:	00 00 00 00 
    305f:	66 66 2e 0f 1f 84 00 	data16 nop WORD PTR cs:[rax+rax*1+0x0]
    3066:	00 00 00 00 
    306a:	66 66 2e 0f 1f 84 00 	data16 nop WORD PTR cs:[rax+rax*1+0x0]
    3071:	00 00 00 00 
    3075:	66 66 2e 0f 1f 84 00 	data16 nop WORD PTR cs:[rax+rax*1+0x0]
    307c:	00 00 00 00 
    3080:	66 66 2e 0f 1f 84 00 	data16 nop WORD PTR cs:[rax+rax*1+0x0]
    3087:	00 00 00 00 
    308b:	66 66 2e 0f 1f 84 00 	data16 nop WORD PTR cs:[rax+rax*1+0x0]
    3092:	00 00 00 00 
    3096:	66 66 2e 0f 1f 84 00 	data16 nop WORD PTR cs:[rax+rax*1+0x0]
    309d:	00 00 00 00 
    30a1:	66 66 2e 0f 1f 84 00 	data16 nop WORD PTR cs:[rax+rax*1+0x0]
    30a8:	00 00 00 00 
    30ac:	66 66 2e 0f 1f 84 00 	data16 nop WORD PTR cs:[rax+rax*1+0x0]
    30b3:	00 00 00 00 
    30b7:	66 66 2e 0f 1f 84 00 	data16 nop WORD PTR cs:[rax+rax*1+0x0]
    30be:	00 00 00 00 
    30c2:	66 66 2e 0f 1f 84 00 	data16 nop WORD PTR cs:[rax+rax*1+0x0]
    30c9:	00 00 00 00 
    30cd:	66 66 2e 0f 1f 84 00 	data16 nop WORD PTR cs:[rax+rax*1+0x0]
    30d4:	00 00 00 00 
    30d8:	66 66 2e 0f 1f 84 00 	data16 nop WORD PTR cs:[rax+rax*1+0x0]
    30df:	00 00 00 00 
    30e3:	66 66 2e 0f 1f 84 00 	data16 nop WORD PTR cs:[rax+rax*1+0x0]
    30ea:	00 00 00 00 
    30ee:	66 66 2e 0f 1f 84 00 	data16 nop WORD PTR cs:[rax+rax*1+0x0]
    30f5:	00 00 00 00 
    30f9:	66 66 2e 0f 1f 84 00 	data16 nop WORD PTR cs:[rax+rax*1+0x0]
    3100:	00 00 00 00 
    3104:	66 66 2e 0f 1f 84 00 	data16 nop WORD PTR cs:[rax+rax*1+0x0]
    310b:	00 00 00 00 
    310f:	66 66 2e 0f 1f 84 00 	data16 nop WORD PTR cs:[rax+rax*1+0x0]
    3116:	00 00 00 00 
    311a:	66 66 2e 0f 1f 84 00 	data16 nop WORD PTR cs:[rax+rax*1+0x0]
    3121:	00 00 00 00 
    3125:	66 66 2e 0f 1f 84 00 	data16 nop WORD PTR cs:[rax+rax*1+0x0]
    312c:	00 00 00 00 
    3130:	66 66 2e 0f 1f 84 00 	data16 nop WORD PTR cs:[rax+rax*1+0x0]
    3137:	00 00 00 00 
    313b:	66 66 2e 0f 1f 84 00 	data16 nop WORD PTR cs:[rax+rax*1+0x0]
    3142:	00 00 00 00 
    3146:	66 66 2e 0f 1f 84 00 	data16 nop WORD PTR cs:[rax+rax*1+0x0]
    314d:	00 00 00 00 
    3151:	66 66 2e 0f 1f 84 00 	data16 nop WORD PTR cs:[rax+rax*1+0x0]
    3158:	00 00 00 00 
    315c:	66 66 2e 0f 1f 84 00 	data16 nop WORD PTR cs:[rax+rax*1+0x0]
    3163:	00 00 00 00 
    3167:	66 66 2e 0f 1f 84 00 	data16 nop WORD PTR cs:[rax+rax*1+0x0]
    316e:	00 00 00 00 
    3172:	66 66 2e 0f 1f 84 00 	data16 nop WORD PTR cs:[rax+rax*1+0x0]
    3179:	00 00 00 00 
    317d:	66 66 2e 0f 1f 84 00 	data16 nop WORD PTR cs:[rax+rax*1+0x0]
    3184:	00 00 00 00 
    3188:	66 66 2e 0f 1f 84 00 	data16 nop WORD PTR cs:[rax+rax*1+0x0]
    318f:	00 00 00 00 
    3193:	66 66 2e 0f 1f 84 00 	data16 nop WORD PTR cs:[rax+rax*1+0x0]
    319a:	00 00 00 00 
    319e:	66 66 2e 0f 1f 84 00 	data16 nop WORD PTR cs:[rax+rax*1+0x0]
    31a5:	00 00 00 00 
    31a9:	66 66 2e 0f 1f 84 00 	data16 nop WORD PTR cs:[rax+rax*1+0x0]
    31b0:	00 00 00 00 
    31b4:	66 66 2e 0f 1f 84 00 	data16 nop WORD PTR cs:[rax+rax*1+0x0]
    31bb:	00 00 00 00 
    31bf:	66 66 2e 0f 1f 84 00 	data16 nop WORD PTR cs:[rax+rax*1+0x0]
    31c6:	00 00 00 00 
    31ca:	66 66 2e 0f 1f 84 00 	data16 nop WORD PTR cs:[rax+rax*1+0x0]
    31d1:	00 00 00 00 
    31d5:	66 66 2e 0f 1f 84 00 	data16 nop WORD PTR cs:[rax+rax*1+0x0]
    31dc:	00 00 00 00 
    31e0:	66 66 2e 0f 1f 84 00 	data16 nop WORD PTR cs:[rax+rax*1+0x0]
    31e7:	00 00 00 00 
    31eb:	66 66 2e 0f 1f 84 00 	data16 nop WORD PTR cs:[rax+rax*1+0x0]
    31f2:	00 00 00 00 
    31f6:	66 2e 0f 1f 84 00 00 	nop    WORD PTR cs:[rax+rax*1+0x0]
    31fd:	00 00 00 

0000000000003200 <function_16()>:

void function_16()
{
    3200:	f3 0f 1e fa          	endbr64 
    3204:	55                   	push   rbp
    3205:	48 89 e5             	mov    rbp,rsp
    int i = 0;
    3208:	c7 45 fc 00 00 00 00 	mov    DWORD PTR [rbp-0x4],0x0
    for (int j = 0; j < 10; j++)
    320f:	c7 45 f8 00 00 00 00 	mov    DWORD PTR [rbp-0x8],0x0
    3216:	83 7d f8 09          	cmp    DWORD PTR [rbp-0x8],0x9
    321a:	7f 0f                	jg     322b <function_16()+0x2b>
    {
        i = j + 1;
    321c:	8b 45 f8             	mov    eax,DWORD PTR [rbp-0x8]
    321f:	83 c0 01             	add    eax,0x1
    3222:	89 45 fc             	mov    DWORD PTR [rbp-0x4],eax
    for (int j = 0; j < 10; j++)
    3225:	83 45 f8 01          	add    DWORD PTR [rbp-0x8],0x1
    3229:	eb eb                	jmp    3216 <function_16()+0x16>
    }
}
    322b:	90                   	nop
    322c:	5d                   	pop    rbp
    322d:	c3                   	ret    
    322e:	e9 cd 01 00 00       	jmp    3400 <function_17()>
    3233:	66 66 2e 0f 1f 84 00 	data16 nop WORD PTR cs:[rax+rax*1+0x0]
    323a:	00 00 00 00 
    323e:	66 66 2e 0f 1f 84 00 	data16 nop WORD PTR cs:[rax+rax*1+0x0]
    3245:	00 00 00 00 
    3249:	66 66 2e 0f 1f 84 00 	data16 nop WORD PTR cs:[rax+rax*1+0x0]
    3250:	00 00 00 00 
    3254:	66 66 2e 0f 1f 84 00 	data16 nop WORD PTR cs:[rax+rax*1+0x0]
    325b:	00 00 00 00 
    325f:	66 66 2e 0f 1f 84 00 	data16 nop WORD PTR cs:[rax+rax*1+0x0]
    3266:	00 00 00 00 
    326a:	66 66 2e 0f 1f 84 00 	data16 nop WORD PTR cs:[rax+rax*1+0x0]
    3271:	00 00 00 00 
    3275:	66 66 2e 0f 1f 84 00 	data16 nop WORD PTR cs:[rax+rax*1+0x0]
    327c:	00 00 00 00 
    3280:	66 66 2e 0f 1f 84 00 	data16 nop WORD PTR cs:[rax+rax*1+0x0]
    3287:	00 00 00 00 
    328b:	66 66 2e 0f 1f 84 00 	data16 nop WORD PTR cs:[rax+rax*1+0x0]
    3292:	00 00 00 00 
    3296:	66 66 2e 0f 1f 84 00 	data16 nop WORD PTR cs:[rax+rax*1+0x0]
    329d:	00 00 00 00 
    32a1:	66 66 2e 0f 1f 84 00 	data16 nop WORD PTR cs:[rax+rax*1+0x0]
    32a8:	00 00 00 00 
    32ac:	66 66 2e 0f 1f 84 00 	data16 nop WORD PTR cs:[rax+rax*1+0x0]
    32b3:	00 00 00 00 
    32b7:	66 66 2e 0f 1f 84 00 	data16 nop WORD PTR cs:[rax+rax*1+0x0]
    32be:	00 00 00 00 
    32c2:	66 66 2e 0f 1f 84 00 	data16 nop WORD PTR cs:[rax+rax*1+0x0]
    32c9:	00 00 00 00 
    32cd:	66 66 2e 0f 1f 84 00 	data16 nop WORD PTR cs:[rax+rax*1+0x0]
    32d4:	00 00 00 00 
    32d8:	66 66 2e 0f 1f 84 00 	data16 nop WORD PTR cs:[rax+rax*1+0x0]
    32df:	00 00 00 00 
    32e3:	66 66 2e 0f 1f 84 00 	data16 nop WORD PTR cs:[rax+rax*1+0x0]
    32ea:	00 00 00 00 
    32ee:	66 66 2e 0f 1f 84 00 	data16 nop WORD PTR cs:[rax+rax*1+0x0]
    32f5:	00 00 00 00 
    32f9:	66 66 2e 0f 1f 84 00 	data16 nop WORD PTR cs:[rax+rax*1+0x0]
    3300:	00 00 00 00 
    3304:	66 66 2e 0f 1f 84 00 	data16 nop WORD PTR cs:[rax+rax*1+0x0]
    330b:	00 00 00 00 
    330f:	66 66 2e 0f 1f 84 00 	data16 nop WORD PTR cs:[rax+rax*1+0x0]
    3316:	00 00 00 00 
    331a:	66 66 2e 0f 1f 84 00 	data16 nop WORD PTR cs:[rax+rax*1+0x0]
    3321:	00 00 00 00 
    3325:	66 66 2e 0f 1f 84 00 	data16 nop WORD PTR cs:[rax+rax*1+0x0]
    332c:	00 00 00 00 
    3330:	66 66 2e 0f 1f 84 00 	data16 nop WORD PTR cs:[rax+rax*1+0x0]
    3337:	00 00 00 00 
    333b:	66 66 2e 0f 1f 84 00 	data16 nop WORD PTR cs:[rax+rax*1+0x0]
    3342:	00 00 00 00 
    3346:	66 66 2e 0f 1f 84 00 	data16 nop WORD PTR cs:[rax+rax*1+0x0]
    334d:	00 00 00 00 
    3351:	66 66 2e 0f 1f 84 00 	data16 nop WORD PTR cs:[rax+rax*1+0x0]
    3358:	00 00 00 00 
    335c:	66 66 2e 0f 1f 84 00 	data16 nop WORD PTR cs:[rax+rax*1+0x0]
    3363:	00 00 00 00 
    3367:	66 66 2e 0f 1f 84 00 	data16 nop WORD PTR cs:[rax+rax*1+0x0]
    336e:	00 00 00 00 
    3372:	66 66 2e 0f 1f 84 00 	data16 nop WORD PTR cs:[rax+rax*1+0x0]
    3379:	00 00 00 00 
    337d:	66 66 2e 0f 1f 84 00 	data16 nop WORD PTR cs:[rax+rax*1+0x0]
    3384:	00 00 00 00 
    3388:	66 66 2e 0f 1f 84 00 	data16 nop WORD PTR cs:[rax+rax*1+0x0]
    338f:	00 00 00 00 
    3393:	66 66 2e 0f 1f 84 00 	data16 nop WORD PTR cs:[rax+rax*1+0x0]
    339a:	00 00 00 00 
    339e:	66 66 2e 0f 1f 84 00 	data16 nop WORD PTR cs:[rax+rax*1+0x0]
    33a5:	00 00 00 00 
    33a9:	66 66 2e 0f 1f 84 00 	data16 nop WORD PTR cs:[rax+rax*1+0x0]
    33b0:	00 00 00 00 
    33b4:	66 66 2e 0f 1f 84 00 	data16 nop WORD PTR cs:[rax+rax*1+0x0]
    33bb:	00 00 00 00 
    33bf:	66 66 2e 0f 1f 84 00 	data16 nop WORD PTR cs:[rax+rax*1+0x0]
    33c6:	00 00 00 00 
    33ca:	66 66 2e 0f 1f 84 00 	data16 nop WORD PTR cs:[rax+rax*1+0x0]
    33d1:	00 00 00 00 
    33d5:	66 66 2e 0f 1f 84 00 	data16 nop WORD PTR cs:[rax+rax*1+0x0]
    33dc:	00 00 00 00 
    33e0:	66 66 2e 0f 1f 84 00 	data16 nop WORD PTR cs:[rax+rax*1+0x0]
    33e7:	00 00 00 00 
    33eb:	66 66 2e 0f 1f 84 00 	data16 nop WORD PTR cs:[rax+rax*1+0x0]
    33f2:	00 00 00 00 
    33f6:	66 2e 0f 1f 84 00 00 	nop    WORD PTR cs:[rax+rax*1+0x0]
    33fd:	00 00 00 

0000000000003400 <function_17()>:

void function_17()
{
    3400:	f3 0f 1e fa          	endbr64 
    3404:	55                   	push   rbp
    3405:	48 89 e5             	mov    rbp,rsp
    int i = 0;
    3408:	c7 45 fc 00 00 00 00 	mov    DWORD PTR [rbp-0x4],0x0
    for (int j = 0; j < 10; j++)
    340f:	c7 45 f8 00 00 00 00 	mov    DWORD PTR [rbp-0x8],0x0
    3416:	83 7d f8 09          	cmp    DWORD PTR [rbp-0x8],0x9
    341a:	7f 0f                	jg     342b <function_17()+0x2b>
    {
        i = j + 1;
    341c:	8b 45 f8             	mov    eax,DWORD PTR [rbp-0x8]
    341f:	83 c0 01             	add    eax,0x1
    3422:	89 45 fc             	mov    DWORD PTR [rbp-0x4],eax
    for (int j = 0; j < 10; j++)
    3425:	83 45 f8 01          	add    DWORD PTR [rbp-0x8],0x1
    3429:	eb eb                	jmp    3416 <function_17()+0x16>
    }
}
    342b:	90                   	nop
    342c:	5d                   	pop    rbp
    342d:	c3                   	ret    
    342e:	e9 cd 01 00 00       	jmp    3600 <function_18()>
    3433:	66 66 2e 0f 1f 84 00 	data16 nop WORD PTR cs:[rax+rax*1+0x0]
    343a:	00 00 00 00 
    343e:	66 66 2e 0f 1f 84 00 	data16 nop WORD PTR cs:[rax+rax*1+0x0]
    3445:	00 00 00 00 
    3449:	66 66 2e 0f 1f 84 00 	data16 nop WORD PTR cs:[rax+rax*1+0x0]
    3450:	00 00 00 00 
    3454:	66 66 2e 0f 1f 84 00 	data16 nop WORD PTR cs:[rax+rax*1+0x0]
    345b:	00 00 00 00 
    345f:	66 66 2e 0f 1f 84 00 	data16 nop WORD PTR cs:[rax+rax*1+0x0]
    3466:	00 00 00 00 
    346a:	66 66 2e 0f 1f 84 00 	data16 nop WORD PTR cs:[rax+rax*1+0x0]
    3471:	00 00 00 00 
    3475:	66 66 2e 0f 1f 84 00 	data16 nop WORD PTR cs:[rax+rax*1+0x0]
    347c:	00 00 00 00 
    3480:	66 66 2e 0f 1f 84 00 	data16 nop WORD PTR cs:[rax+rax*1+0x0]
    3487:	00 00 00 00 
    348b:	66 66 2e 0f 1f 84 00 	data16 nop WORD PTR cs:[rax+rax*1+0x0]
    3492:	00 00 00 00 
    3496:	66 66 2e 0f 1f 84 00 	data16 nop WORD PTR cs:[rax+rax*1+0x0]
    349d:	00 00 00 00 
    34a1:	66 66 2e 0f 1f 84 00 	data16 nop WORD PTR cs:[rax+rax*1+0x0]
    34a8:	00 00 00 00 
    34ac:	66 66 2e 0f 1f 84 00 	data16 nop WORD PTR cs:[rax+rax*1+0x0]
    34b3:	00 00 00 00 
    34b7:	66 66 2e 0f 1f 84 00 	data16 nop WORD PTR cs:[rax+rax*1+0x0]
    34be:	00 00 00 00 
    34c2:	66 66 2e 0f 1f 84 00 	data16 nop WORD PTR cs:[rax+rax*1+0x0]
    34c9:	00 00 00 00 
    34cd:	66 66 2e 0f 1f 84 00 	data16 nop WORD PTR cs:[rax+rax*1+0x0]
    34d4:	00 00 00 00 
    34d8:	66 66 2e 0f 1f 84 00 	data16 nop WORD PTR cs:[rax+rax*1+0x0]
    34df:	00 00 00 00 
    34e3:	66 66 2e 0f 1f 84 00 	data16 nop WORD PTR cs:[rax+rax*1+0x0]
    34ea:	00 00 00 00 
    34ee:	66 66 2e 0f 1f 84 00 	data16 nop WORD PTR cs:[rax+rax*1+0x0]
    34f5:	00 00 00 00 
    34f9:	66 66 2e 0f 1f 84 00 	data16 nop WORD PTR cs:[rax+rax*1+0x0]
    3500:	00 00 00 00 
    3504:	66 66 2e 0f 1f 84 00 	data16 nop WORD PTR cs:[rax+rax*1+0x0]
    350b:	00 00 00 00 
    350f:	66 66 2e 0f 1f 84 00 	data16 nop WORD PTR cs:[rax+rax*1+0x0]
    3516:	00 00 00 00 
    351a:	66 66 2e 0f 1f 84 00 	data16 nop WORD PTR cs:[rax+rax*1+0x0]
    3521:	00 00 00 00 
    3525:	66 66 2e 0f 1f 84 00 	data16 nop WORD PTR cs:[rax+rax*1+0x0]
    352c:	00 00 00 00 
    3530:	66 66 2e 0f 1f 84 00 	data16 nop WORD PTR cs:[rax+rax*1+0x0]
    3537:	00 00 00 00 
    353b:	66 66 2e 0f 1f 84 00 	data16 nop WORD PTR cs:[rax+rax*1+0x0]
    3542:	00 00 00 00 
    3546:	66 66 2e 0f 1f 84 00 	data16 nop WORD PTR cs:[rax+rax*1+0x0]
    354d:	00 00 00 00 
    3551:	66 66 2e 0f 1f 84 00 	data16 nop WORD PTR cs:[rax+rax*1+0x0]
    3558:	00 00 00 00 
    355c:	66 66 2e 0f 1f 84 00 	data16 nop WORD PTR cs:[rax+rax*1+0x0]
    3563:	00 00 00 00 
    3567:	66 66 2e 0f 1f 84 00 	data16 nop WORD PTR cs:[rax+rax*1+0x0]
    356e:	00 00 00 00 
    3572:	66 66 2e 0f 1f 84 00 	data16 nop WORD PTR cs:[rax+rax*1+0x0]
    3579:	00 00 00 00 
    357d:	66 66 2e 0f 1f 84 00 	data16 nop WORD PTR cs:[rax+rax*1+0x0]
    3584:	00 00 00 00 
    3588:	66 66 2e 0f 1f 84 00 	data16 nop WORD PTR cs:[rax+rax*1+0x0]
    358f:	00 00 00 00 
    3593:	66 66 2e 0f 1f 84 00 	data16 nop WORD PTR cs:[rax+rax*1+0x0]
    359a:	00 00 00 00 
    359e:	66 66 2e 0f 1f 84 00 	data16 nop WORD PTR cs:[rax+rax*1+0x0]
    35a5:	00 00 00 00 
    35a9:	66 66 2e 0f 1f 84 00 	data16 nop WORD PTR cs:[rax+rax*1+0x0]
    35b0:	00 00 00 00 
    35b4:	66 66 2e 0f 1f 84 00 	data16 nop WORD PTR cs:[rax+rax*1+0x0]
    35bb:	00 00 00 00 
    35bf:	66 66 2e 0f 1f 84 00 	data16 nop WORD PTR cs:[rax+rax*1+0x0]
    35c6:	00 00 00 00 
    35ca:	66 66 2e 0f 1f 84 00 	data16 nop WORD PTR cs:[rax+rax*1+0x0]
    35d1:	00 00 00 00 
    35d5:	66 66 2e 0f 1f 84 00 	data16 nop WORD PTR cs:[rax+rax*1+0x0]
    35dc:	00 00 00 00 
    35e0:	66 66 2e 0f 1f 84 00 	data16 nop WORD PTR cs:[rax+rax*1+0x0]
    35e7:	00 00 00 00 
    35eb:	66 66 2e 0f 1f 84 00 	data16 nop WORD PTR cs:[rax+rax*1+0x0]
    35f2:	00 00 00 00 
    35f6:	66 2e 0f 1f 84 00 00 	nop    WORD PTR cs:[rax+rax*1+0x0]
    35fd:	00 00 00 

0000000000003600 <function_18()>:

void function_18()
{
    3600:	f3 0f 1e fa          	endbr64 
    3604:	55                   	push   rbp
    3605:	48 89 e5             	mov    rbp,rsp
    int i = 0;
    3608:	c7 45 fc 00 00 00 00 	mov    DWORD PTR [rbp-0x4],0x0
    for (int j = 0; j < 10; j++)
    360f:	c7 45 f8 00 00 00 00 	mov    DWORD PTR [rbp-0x8],0x0
    3616:	83 7d f8 09          	cmp    DWORD PTR [rbp-0x8],0x9
    361a:	7f 0f                	jg     362b <function_18()+0x2b>
    {
        i = j + 1;
    361c:	8b 45 f8             	mov    eax,DWORD PTR [rbp-0x8]
    361f:	83 c0 01             	add    eax,0x1
    3622:	89 45 fc             	mov    DWORD PTR [rbp-0x4],eax
    for (int j = 0; j < 10; j++)
    3625:	83 45 f8 01          	add    DWORD PTR [rbp-0x8],0x1
    3629:	eb eb                	jmp    3616 <function_18()+0x16>
    }
}
    362b:	90                   	nop
    362c:	5d                   	pop    rbp
    362d:	c3                   	ret    
    362e:	e9 cd 01 00 00       	jmp    3800 <function_19()>
    3633:	66 66 2e 0f 1f 84 00 	data16 nop WORD PTR cs:[rax+rax*1+0x0]
    363a:	00 00 00 00 
    363e:	66 66 2e 0f 1f 84 00 	data16 nop WORD PTR cs:[rax+rax*1+0x0]
    3645:	00 00 00 00 
    3649:	66 66 2e 0f 1f 84 00 	data16 nop WORD PTR cs:[rax+rax*1+0x0]
    3650:	00 00 00 00 
    3654:	66 66 2e 0f 1f 84 00 	data16 nop WORD PTR cs:[rax+rax*1+0x0]
    365b:	00 00 00 00 
    365f:	66 66 2e 0f 1f 84 00 	data16 nop WORD PTR cs:[rax+rax*1+0x0]
    3666:	00 00 00 00 
    366a:	66 66 2e 0f 1f 84 00 	data16 nop WORD PTR cs:[rax+rax*1+0x0]
    3671:	00 00 00 00 
    3675:	66 66 2e 0f 1f 84 00 	data16 nop WORD PTR cs:[rax+rax*1+0x0]
    367c:	00 00 00 00 
    3680:	66 66 2e 0f 1f 84 00 	data16 nop WORD PTR cs:[rax+rax*1+0x0]
    3687:	00 00 00 00 
    368b:	66 66 2e 0f 1f 84 00 	data16 nop WORD PTR cs:[rax+rax*1+0x0]
    3692:	00 00 00 00 
    3696:	66 66 2e 0f 1f 84 00 	data16 nop WORD PTR cs:[rax+rax*1+0x0]
    369d:	00 00 00 00 
    36a1:	66 66 2e 0f 1f 84 00 	data16 nop WORD PTR cs:[rax+rax*1+0x0]
    36a8:	00 00 00 00 
    36ac:	66 66 2e 0f 1f 84 00 	data16 nop WORD PTR cs:[rax+rax*1+0x0]
    36b3:	00 00 00 00 
    36b7:	66 66 2e 0f 1f 84 00 	data16 nop WORD PTR cs:[rax+rax*1+0x0]
    36be:	00 00 00 00 
    36c2:	66 66 2e 0f 1f 84 00 	data16 nop WORD PTR cs:[rax+rax*1+0x0]
    36c9:	00 00 00 00 
    36cd:	66 66 2e 0f 1f 84 00 	data16 nop WORD PTR cs:[rax+rax*1+0x0]
    36d4:	00 00 00 00 
    36d8:	66 66 2e 0f 1f 84 00 	data16 nop WORD PTR cs:[rax+rax*1+0x0]
    36df:	00 00 00 00 
    36e3:	66 66 2e 0f 1f 84 00 	data16 nop WORD PTR cs:[rax+rax*1+0x0]
    36ea:	00 00 00 00 
    36ee:	66 66 2e 0f 1f 84 00 	data16 nop WORD PTR cs:[rax+rax*1+0x0]
    36f5:	00 00 00 00 
    36f9:	66 66 2e 0f 1f 84 00 	data16 nop WORD PTR cs:[rax+rax*1+0x0]
    3700:	00 00 00 00 
    3704:	66 66 2e 0f 1f 84 00 	data16 nop WORD PTR cs:[rax+rax*1+0x0]
    370b:	00 00 00 00 
    370f:	66 66 2e 0f 1f 84 00 	data16 nop WORD PTR cs:[rax+rax*1+0x0]
    3716:	00 00 00 00 
    371a:	66 66 2e 0f 1f 84 00 	data16 nop WORD PTR cs:[rax+rax*1+0x0]
    3721:	00 00 00 00 
    3725:	66 66 2e 0f 1f 84 00 	data16 nop WORD PTR cs:[rax+rax*1+0x0]
    372c:	00 00 00 00 
    3730:	66 66 2e 0f 1f 84 00 	data16 nop WORD PTR cs:[rax+rax*1+0x0]
    3737:	00 00 00 00 
    373b:	66 66 2e 0f 1f 84 00 	data16 nop WORD PTR cs:[rax+rax*1+0x0]
    3742:	00 00 00 00 
    3746:	66 66 2e 0f 1f 84 00 	data16 nop WORD PTR cs:[rax+rax*1+0x0]
    374d:	00 00 00 00 
    3751:	66 66 2e 0f 1f 84 00 	data16 nop WORD PTR cs:[rax+rax*1+0x0]
    3758:	00 00 00 00 
    375c:	66 66 2e 0f 1f 84 00 	data16 nop WORD PTR cs:[rax+rax*1+0x0]
    3763:	00 00 00 00 
    3767:	66 66 2e 0f 1f 84 00 	data16 nop WORD PTR cs:[rax+rax*1+0x0]
    376e:	00 00 00 00 
    3772:	66 66 2e 0f 1f 84 00 	data16 nop WORD PTR cs:[rax+rax*1+0x0]
    3779:	00 00 00 00 
    377d:	66 66 2e 0f 1f 84 00 	data16 nop WORD PTR cs:[rax+rax*1+0x0]
    3784:	00 00 00 00 
    3788:	66 66 2e 0f 1f 84 00 	data16 nop WORD PTR cs:[rax+rax*1+0x0]
    378f:	00 00 00 00 
    3793:	66 66 2e 0f 1f 84 00 	data16 nop WORD PTR cs:[rax+rax*1+0x0]
    379a:	00 00 00 00 
    379e:	66 66 2e 0f 1f 84 00 	data16 nop WORD PTR cs:[rax+rax*1+0x0]
    37a5:	00 00 00 00 
    37a9:	66 66 2e 0f 1f 84 00 	data16 nop WORD PTR cs:[rax+rax*1+0x0]
    37b0:	00 00 00 00 
    37b4:	66 66 2e 0f 1f 84 00 	data16 nop WORD PTR cs:[rax+rax*1+0x0]
    37bb:	00 00 00 00 
    37bf:	66 66 2e 0f 1f 84 00 	data16 nop WORD PTR cs:[rax+rax*1+0x0]
    37c6:	00 00 00 00 
    37ca:	66 66 2e 0f 1f 84 00 	data16 nop WORD PTR cs:[rax+rax*1+0x0]
    37d1:	00 00 00 00 
    37d5:	66 66 2e 0f 1f 84 00 	data16 nop WORD PTR cs:[rax+rax*1+0x0]
    37dc:	00 00 00 00 
    37e0:	66 66 2e 0f 1f 84 00 	data16 nop WORD PTR cs:[rax+rax*1+0x0]
    37e7:	00 00 00 00 
    37eb:	66 66 2e 0f 1f 84 00 	data16 nop WORD PTR cs:[rax+rax*1+0x0]
    37f2:	00 00 00 00 
    37f6:	66 2e 0f 1f 84 00 00 	nop    WORD PTR cs:[rax+rax*1+0x0]
    37fd:	00 00 00 

0000000000003800 <function_19()>:

void function_19()
{
    3800:	f3 0f 1e fa          	endbr64 
    3804:	55                   	push   rbp
    3805:	48 89 e5             	mov    rbp,rsp
    int i = 0;
    3808:	c7 45 fc 00 00 00 00 	mov    DWORD PTR [rbp-0x4],0x0
    for (int j = 0; j < 10; j++)
    380f:	c7 45 f8 00 00 00 00 	mov    DWORD PTR [rbp-0x8],0x0
    3816:	83 7d f8 09          	cmp    DWORD PTR [rbp-0x8],0x9
    381a:	7f 0f                	jg     382b <function_19()+0x2b>
    {
        i = j + 1;
    381c:	8b 45 f8             	mov    eax,DWORD PTR [rbp-0x8]
    381f:	83 c0 01             	add    eax,0x1
    3822:	89 45 fc             	mov    DWORD PTR [rbp-0x4],eax
    for (int j = 0; j < 10; j++)
    3825:	83 45 f8 01          	add    DWORD PTR [rbp-0x8],0x1
    3829:	eb eb                	jmp    3816 <function_19()+0x16>
    }
}
    382b:	90                   	nop
    382c:	5d                   	pop    rbp
    382d:	c3                   	ret    
    382e:	e9 cd 01 00 00       	jmp    3a00 <function_20()>
    3833:	66 66 2e 0f 1f 84 00 	data16 nop WORD PTR cs:[rax+rax*1+0x0]
    383a:	00 00 00 00 
    383e:	66 66 2e 0f 1f 84 00 	data16 nop WORD PTR cs:[rax+rax*1+0x0]
    3845:	00 00 00 00 
    3849:	66 66 2e 0f 1f 84 00 	data16 nop WORD PTR cs:[rax+rax*1+0x0]
    3850:	00 00 00 00 
    3854:	66 66 2e 0f 1f 84 00 	data16 nop WORD PTR cs:[rax+rax*1+0x0]
    385b:	00 00 00 00 
    385f:	66 66 2e 0f 1f 84 00 	data16 nop WORD PTR cs:[rax+rax*1+0x0]
    3866:	00 00 00 00 
    386a:	66 66 2e 0f 1f 84 00 	data16 nop WORD PTR cs:[rax+rax*1+0x0]
    3871:	00 00 00 00 
    3875:	66 66 2e 0f 1f 84 00 	data16 nop WORD PTR cs:[rax+rax*1+0x0]
    387c:	00 00 00 00 
    3880:	66 66 2e 0f 1f 84 00 	data16 nop WORD PTR cs:[rax+rax*1+0x0]
    3887:	00 00 00 00 
    388b:	66 66 2e 0f 1f 84 00 	data16 nop WORD PTR cs:[rax+rax*1+0x0]
    3892:	00 00 00 00 
    3896:	66 66 2e 0f 1f 84 00 	data16 nop WORD PTR cs:[rax+rax*1+0x0]
    389d:	00 00 00 00 
    38a1:	66 66 2e 0f 1f 84 00 	data16 nop WORD PTR cs:[rax+rax*1+0x0]
    38a8:	00 00 00 00 
    38ac:	66 66 2e 0f 1f 84 00 	data16 nop WORD PTR cs:[rax+rax*1+0x0]
    38b3:	00 00 00 00 
    38b7:	66 66 2e 0f 1f 84 00 	data16 nop WORD PTR cs:[rax+rax*1+0x0]
    38be:	00 00 00 00 
    38c2:	66 66 2e 0f 1f 84 00 	data16 nop WORD PTR cs:[rax+rax*1+0x0]
    38c9:	00 00 00 00 
    38cd:	66 66 2e 0f 1f 84 00 	data16 nop WORD PTR cs:[rax+rax*1+0x0]
    38d4:	00 00 00 00 
    38d8:	66 66 2e 0f 1f 84 00 	data16 nop WORD PTR cs:[rax+rax*1+0x0]
    38df:	00 00 00 00 
    38e3:	66 66 2e 0f 1f 84 00 	data16 nop WORD PTR cs:[rax+rax*1+0x0]
    38ea:	00 00 00 00 
    38ee:	66 66 2e 0f 1f 84 00 	data16 nop WORD PTR cs:[rax+rax*1+0x0]
    38f5:	00 00 00 00 
    38f9:	66 66 2e 0f 1f 84 00 	data16 nop WORD PTR cs:[rax+rax*1+0x0]
    3900:	00 00 00 00 
    3904:	66 66 2e 0f 1f 84 00 	data16 nop WORD PTR cs:[rax+rax*1+0x0]
    390b:	00 00 00 00 
    390f:	66 66 2e 0f 1f 84 00 	data16 nop WORD PTR cs:[rax+rax*1+0x0]
    3916:	00 00 00 00 
    391a:	66 66 2e 0f 1f 84 00 	data16 nop WORD PTR cs:[rax+rax*1+0x0]
    3921:	00 00 00 00 
    3925:	66 66 2e 0f 1f 84 00 	data16 nop WORD PTR cs:[rax+rax*1+0x0]
    392c:	00 00 00 00 
    3930:	66 66 2e 0f 1f 84 00 	data16 nop WORD PTR cs:[rax+rax*1+0x0]
    3937:	00 00 00 00 
    393b:	66 66 2e 0f 1f 84 00 	data16 nop WORD PTR cs:[rax+rax*1+0x0]
    3942:	00 00 00 00 
    3946:	66 66 2e 0f 1f 84 00 	data16 nop WORD PTR cs:[rax+rax*1+0x0]
    394d:	00 00 00 00 
    3951:	66 66 2e 0f 1f 84 00 	data16 nop WORD PTR cs:[rax+rax*1+0x0]
    3958:	00 00 00 00 
    395c:	66 66 2e 0f 1f 84 00 	data16 nop WORD PTR cs:[rax+rax*1+0x0]
    3963:	00 00 00 00 
    3967:	66 66 2e 0f 1f 84 00 	data16 nop WORD PTR cs:[rax+rax*1+0x0]
    396e:	00 00 00 00 
    3972:	66 66 2e 0f 1f 84 00 	data16 nop WORD PTR cs:[rax+rax*1+0x0]
    3979:	00 00 00 00 
    397d:	66 66 2e 0f 1f 84 00 	data16 nop WORD PTR cs:[rax+rax*1+0x0]
    3984:	00 00 00 00 
    3988:	66 66 2e 0f 1f 84 00 	data16 nop WORD PTR cs:[rax+rax*1+0x0]
    398f:	00 00 00 00 
    3993:	66 66 2e 0f 1f 84 00 	data16 nop WORD PTR cs:[rax+rax*1+0x0]
    399a:	00 00 00 00 
    399e:	66 66 2e 0f 1f 84 00 	data16 nop WORD PTR cs:[rax+rax*1+0x0]
    39a5:	00 00 00 00 
    39a9:	66 66 2e 0f 1f 84 00 	data16 nop WORD PTR cs:[rax+rax*1+0x0]
    39b0:	00 00 00 00 
    39b4:	66 66 2e 0f 1f 84 00 	data16 nop WORD PTR cs:[rax+rax*1+0x0]
    39bb:	00 00 00 00 
    39bf:	66 66 2e 0f 1f 84 00 	data16 nop WORD PTR cs:[rax+rax*1+0x0]
    39c6:	00 00 00 00 
    39ca:	66 66 2e 0f 1f 84 00 	data16 nop WORD PTR cs:[rax+rax*1+0x0]
    39d1:	00 00 00 00 
    39d5:	66 66 2e 0f 1f 84 00 	data16 nop WORD PTR cs:[rax+rax*1+0x0]
    39dc:	00 00 00 00 
    39e0:	66 66 2e 0f 1f 84 00 	data16 nop WORD PTR cs:[rax+rax*1+0x0]
    39e7:	00 00 00 00 
    39eb:	66 66 2e 0f 1f 84 00 	data16 nop WORD PTR cs:[rax+rax*1+0x0]
    39f2:	00 00 00 00 
    39f6:	66 2e 0f 1f 84 00 00 	nop    WORD PTR cs:[rax+rax*1+0x0]
    39fd:	00 00 00 

0000000000003a00 <function_20()>:

void function_20()
{
    3a00:	f3 0f 1e fa          	endbr64 
    3a04:	55                   	push   rbp
    3a05:	48 89 e5             	mov    rbp,rsp
    int i = 0;
    3a08:	c7 45 fc 00 00 00 00 	mov    DWORD PTR [rbp-0x4],0x0
    for (int j = 0; j < 10; j++)
    3a0f:	c7 45 f8 00 00 00 00 	mov    DWORD PTR [rbp-0x8],0x0
    3a16:	83 7d f8 09          	cmp    DWORD PTR [rbp-0x8],0x9
    3a1a:	7f 0f                	jg     3a2b <function_20()+0x2b>
    {
        i = j + 1;
    3a1c:	8b 45 f8             	mov    eax,DWORD PTR [rbp-0x8]
    3a1f:	83 c0 01             	add    eax,0x1
    3a22:	89 45 fc             	mov    DWORD PTR [rbp-0x4],eax
    for (int j = 0; j < 10; j++)
    3a25:	83 45 f8 01          	add    DWORD PTR [rbp-0x8],0x1
    3a29:	eb eb                	jmp    3a16 <function_20()+0x16>
    }
}
    3a2b:	90                   	nop
    3a2c:	5d                   	pop    rbp
    3a2d:	c3                   	ret    
    3a2e:	e9 cd 01 00 00       	jmp    3c00 <function_21()>
    3a33:	66 66 2e 0f 1f 84 00 	data16 nop WORD PTR cs:[rax+rax*1+0x0]
    3a3a:	00 00 00 00 
    3a3e:	66 66 2e 0f 1f 84 00 	data16 nop WORD PTR cs:[rax+rax*1+0x0]
    3a45:	00 00 00 00 
    3a49:	66 66 2e 0f 1f 84 00 	data16 nop WORD PTR cs:[rax+rax*1+0x0]
    3a50:	00 00 00 00 
    3a54:	66 66 2e 0f 1f 84 00 	data16 nop WORD PTR cs:[rax+rax*1+0x0]
    3a5b:	00 00 00 00 
    3a5f:	66 66 2e 0f 1f 84 00 	data16 nop WORD PTR cs:[rax+rax*1+0x0]
    3a66:	00 00 00 00 
    3a6a:	66 66 2e 0f 1f 84 00 	data16 nop WORD PTR cs:[rax+rax*1+0x0]
    3a71:	00 00 00 00 
    3a75:	66 66 2e 0f 1f 84 00 	data16 nop WORD PTR cs:[rax+rax*1+0x0]
    3a7c:	00 00 00 00 
    3a80:	66 66 2e 0f 1f 84 00 	data16 nop WORD PTR cs:[rax+rax*1+0x0]
    3a87:	00 00 00 00 
    3a8b:	66 66 2e 0f 1f 84 00 	data16 nop WORD PTR cs:[rax+rax*1+0x0]
    3a92:	00 00 00 00 
    3a96:	66 66 2e 0f 1f 84 00 	data16 nop WORD PTR cs:[rax+rax*1+0x0]
    3a9d:	00 00 00 00 
    3aa1:	66 66 2e 0f 1f 84 00 	data16 nop WORD PTR cs:[rax+rax*1+0x0]
    3aa8:	00 00 00 00 
    3aac:	66 66 2e 0f 1f 84 00 	data16 nop WORD PTR cs:[rax+rax*1+0x0]
    3ab3:	00 00 00 00 
    3ab7:	66 66 2e 0f 1f 84 00 	data16 nop WORD PTR cs:[rax+rax*1+0x0]
    3abe:	00 00 00 00 
    3ac2:	66 66 2e 0f 1f 84 00 	data16 nop WORD PTR cs:[rax+rax*1+0x0]
    3ac9:	00 00 00 00 
    3acd:	66 66 2e 0f 1f 84 00 	data16 nop WORD PTR cs:[rax+rax*1+0x0]
    3ad4:	00 00 00 00 
    3ad8:	66 66 2e 0f 1f 84 00 	data16 nop WORD PTR cs:[rax+rax*1+0x0]
    3adf:	00 00 00 00 
    3ae3:	66 66 2e 0f 1f 84 00 	data16 nop WORD PTR cs:[rax+rax*1+0x0]
    3aea:	00 00 00 00 
    3aee:	66 66 2e 0f 1f 84 00 	data16 nop WORD PTR cs:[rax+rax*1+0x0]
    3af5:	00 00 00 00 
    3af9:	66 66 2e 0f 1f 84 00 	data16 nop WORD PTR cs:[rax+rax*1+0x0]
    3b00:	00 00 00 00 
    3b04:	66 66 2e 0f 1f 84 00 	data16 nop WORD PTR cs:[rax+rax*1+0x0]
    3b0b:	00 00 00 00 
    3b0f:	66 66 2e 0f 1f 84 00 	data16 nop WORD PTR cs:[rax+rax*1+0x0]
    3b16:	00 00 00 00 
    3b1a:	66 66 2e 0f 1f 84 00 	data16 nop WORD PTR cs:[rax+rax*1+0x0]
    3b21:	00 00 00 00 
    3b25:	66 66 2e 0f 1f 84 00 	data16 nop WORD PTR cs:[rax+rax*1+0x0]
    3b2c:	00 00 00 00 
    3b30:	66 66 2e 0f 1f 84 00 	data16 nop WORD PTR cs:[rax+rax*1+0x0]
    3b37:	00 00 00 00 
    3b3b:	66 66 2e 0f 1f 84 00 	data16 nop WORD PTR cs:[rax+rax*1+0x0]
    3b42:	00 00 00 00 
    3b46:	66 66 2e 0f 1f 84 00 	data16 nop WORD PTR cs:[rax+rax*1+0x0]
    3b4d:	00 00 00 00 
    3b51:	66 66 2e 0f 1f 84 00 	data16 nop WORD PTR cs:[rax+rax*1+0x0]
    3b58:	00 00 00 00 
    3b5c:	66 66 2e 0f 1f 84 00 	data16 nop WORD PTR cs:[rax+rax*1+0x0]
    3b63:	00 00 00 00 
    3b67:	66 66 2e 0f 1f 84 00 	data16 nop WORD PTR cs:[rax+rax*1+0x0]
    3b6e:	00 00 00 00 
    3b72:	66 66 2e 0f 1f 84 00 	data16 nop WORD PTR cs:[rax+rax*1+0x0]
    3b79:	00 00 00 00 
    3b7d:	66 66 2e 0f 1f 84 00 	data16 nop WORD PTR cs:[rax+rax*1+0x0]
    3b84:	00 00 00 00 
    3b88:	66 66 2e 0f 1f 84 00 	data16 nop WORD PTR cs:[rax+rax*1+0x0]
    3b8f:	00 00 00 00 
    3b93:	66 66 2e 0f 1f 84 00 	data16 nop WORD PTR cs:[rax+rax*1+0x0]
    3b9a:	00 00 00 00 
    3b9e:	66 66 2e 0f 1f 84 00 	data16 nop WORD PTR cs:[rax+rax*1+0x0]
    3ba5:	00 00 00 00 
    3ba9:	66 66 2e 0f 1f 84 00 	data16 nop WORD PTR cs:[rax+rax*1+0x0]
    3bb0:	00 00 00 00 
    3bb4:	66 66 2e 0f 1f 84 00 	data16 nop WORD PTR cs:[rax+rax*1+0x0]
    3bbb:	00 00 00 00 
    3bbf:	66 66 2e 0f 1f 84 00 	data16 nop WORD PTR cs:[rax+rax*1+0x0]
    3bc6:	00 00 00 00 
    3bca:	66 66 2e 0f 1f 84 00 	data16 nop WORD PTR cs:[rax+rax*1+0x0]
    3bd1:	00 00 00 00 
    3bd5:	66 66 2e 0f 1f 84 00 	data16 nop WORD PTR cs:[rax+rax*1+0x0]
    3bdc:	00 00 00 00 
    3be0:	66 66 2e 0f 1f 84 00 	data16 nop WORD PTR cs:[rax+rax*1+0x0]
    3be7:	00 00 00 00 
    3beb:	66 66 2e 0f 1f 84 00 	data16 nop WORD PTR cs:[rax+rax*1+0x0]
    3bf2:	00 00 00 00 
    3bf6:	66 2e 0f 1f 84 00 00 	nop    WORD PTR cs:[rax+rax*1+0x0]
    3bfd:	00 00 00 

0000000000003c00 <function_21()>:

void function_21()
{
    3c00:	f3 0f 1e fa          	endbr64 
    3c04:	55                   	push   rbp
    3c05:	48 89 e5             	mov    rbp,rsp
    int i = 0;
    3c08:	c7 45 fc 00 00 00 00 	mov    DWORD PTR [rbp-0x4],0x0
    for (int j = 0; j < 10; j++)
    3c0f:	c7 45 f8 00 00 00 00 	mov    DWORD PTR [rbp-0x8],0x0
    3c16:	83 7d f8 09          	cmp    DWORD PTR [rbp-0x8],0x9
    3c1a:	7f 0f                	jg     3c2b <function_21()+0x2b>
    {
        i = j + 1;
    3c1c:	8b 45 f8             	mov    eax,DWORD PTR [rbp-0x8]
    3c1f:	83 c0 01             	add    eax,0x1
    3c22:	89 45 fc             	mov    DWORD PTR [rbp-0x4],eax
    for (int j = 0; j < 10; j++)
    3c25:	83 45 f8 01          	add    DWORD PTR [rbp-0x8],0x1
    3c29:	eb eb                	jmp    3c16 <function_21()+0x16>
    }
}
    3c2b:	90                   	nop
    3c2c:	5d                   	pop    rbp
    3c2d:	c3                   	ret    
    3c2e:	e9 cd 01 00 00       	jmp    3e00 <function_22()>
    3c33:	66 66 2e 0f 1f 84 00 	data16 nop WORD PTR cs:[rax+rax*1+0x0]
    3c3a:	00 00 00 00 
    3c3e:	66 66 2e 0f 1f 84 00 	data16 nop WORD PTR cs:[rax+rax*1+0x0]
    3c45:	00 00 00 00 
    3c49:	66 66 2e 0f 1f 84 00 	data16 nop WORD PTR cs:[rax+rax*1+0x0]
    3c50:	00 00 00 00 
    3c54:	66 66 2e 0f 1f 84 00 	data16 nop WORD PTR cs:[rax+rax*1+0x0]
    3c5b:	00 00 00 00 
    3c5f:	66 66 2e 0f 1f 84 00 	data16 nop WORD PTR cs:[rax+rax*1+0x0]
    3c66:	00 00 00 00 
    3c6a:	66 66 2e 0f 1f 84 00 	data16 nop WORD PTR cs:[rax+rax*1+0x0]
    3c71:	00 00 00 00 
    3c75:	66 66 2e 0f 1f 84 00 	data16 nop WORD PTR cs:[rax+rax*1+0x0]
    3c7c:	00 00 00 00 
    3c80:	66 66 2e 0f 1f 84 00 	data16 nop WORD PTR cs:[rax+rax*1+0x0]
    3c87:	00 00 00 00 
    3c8b:	66 66 2e 0f 1f 84 00 	data16 nop WORD PTR cs:[rax+rax*1+0x0]
    3c92:	00 00 00 00 
    3c96:	66 66 2e 0f 1f 84 00 	data16 nop WORD PTR cs:[rax+rax*1+0x0]
    3c9d:	00 00 00 00 
    3ca1:	66 66 2e 0f 1f 84 00 	data16 nop WORD PTR cs:[rax+rax*1+0x0]
    3ca8:	00 00 00 00 
    3cac:	66 66 2e 0f 1f 84 00 	data16 nop WORD PTR cs:[rax+rax*1+0x0]
    3cb3:	00 00 00 00 
    3cb7:	66 66 2e 0f 1f 84 00 	data16 nop WORD PTR cs:[rax+rax*1+0x0]
    3cbe:	00 00 00 00 
    3cc2:	66 66 2e 0f 1f 84 00 	data16 nop WORD PTR cs:[rax+rax*1+0x0]
    3cc9:	00 00 00 00 
    3ccd:	66 66 2e 0f 1f 84 00 	data16 nop WORD PTR cs:[rax+rax*1+0x0]
    3cd4:	00 00 00 00 
    3cd8:	66 66 2e 0f 1f 84 00 	data16 nop WORD PTR cs:[rax+rax*1+0x0]
    3cdf:	00 00 00 00 
    3ce3:	66 66 2e 0f 1f 84 00 	data16 nop WORD PTR cs:[rax+rax*1+0x0]
    3cea:	00 00 00 00 
    3cee:	66 66 2e 0f 1f 84 00 	data16 nop WORD PTR cs:[rax+rax*1+0x0]
    3cf5:	00 00 00 00 
    3cf9:	66 66 2e 0f 1f 84 00 	data16 nop WORD PTR cs:[rax+rax*1+0x0]
    3d00:	00 00 00 00 
    3d04:	66 66 2e 0f 1f 84 00 	data16 nop WORD PTR cs:[rax+rax*1+0x0]
    3d0b:	00 00 00 00 
    3d0f:	66 66 2e 0f 1f 84 00 	data16 nop WORD PTR cs:[rax+rax*1+0x0]
    3d16:	00 00 00 00 
    3d1a:	66 66 2e 0f 1f 84 00 	data16 nop WORD PTR cs:[rax+rax*1+0x0]
    3d21:	00 00 00 00 
    3d25:	66 66 2e 0f 1f 84 00 	data16 nop WORD PTR cs:[rax+rax*1+0x0]
    3d2c:	00 00 00 00 
    3d30:	66 66 2e 0f 1f 84 00 	data16 nop WORD PTR cs:[rax+rax*1+0x0]
    3d37:	00 00 00 00 
    3d3b:	66 66 2e 0f 1f 84 00 	data16 nop WORD PTR cs:[rax+rax*1+0x0]
    3d42:	00 00 00 00 
    3d46:	66 66 2e 0f 1f 84 00 	data16 nop WORD PTR cs:[rax+rax*1+0x0]
    3d4d:	00 00 00 00 
    3d51:	66 66 2e 0f 1f 84 00 	data16 nop WORD PTR cs:[rax+rax*1+0x0]
    3d58:	00 00 00 00 
    3d5c:	66 66 2e 0f 1f 84 00 	data16 nop WORD PTR cs:[rax+rax*1+0x0]
    3d63:	00 00 00 00 
    3d67:	66 66 2e 0f 1f 84 00 	data16 nop WORD PTR cs:[rax+rax*1+0x0]
    3d6e:	00 00 00 00 
    3d72:	66 66 2e 0f 1f 84 00 	data16 nop WORD PTR cs:[rax+rax*1+0x0]
    3d79:	00 00 00 00 
    3d7d:	66 66 2e 0f 1f 84 00 	data16 nop WORD PTR cs:[rax+rax*1+0x0]
    3d84:	00 00 00 00 
    3d88:	66 66 2e 0f 1f 84 00 	data16 nop WORD PTR cs:[rax+rax*1+0x0]
    3d8f:	00 00 00 00 
    3d93:	66 66 2e 0f 1f 84 00 	data16 nop WORD PTR cs:[rax+rax*1+0x0]
    3d9a:	00 00 00 00 
    3d9e:	66 66 2e 0f 1f 84 00 	data16 nop WORD PTR cs:[rax+rax*1+0x0]
    3da5:	00 00 00 00 
    3da9:	66 66 2e 0f 1f 84 00 	data16 nop WORD PTR cs:[rax+rax*1+0x0]
    3db0:	00 00 00 00 
    3db4:	66 66 2e 0f 1f 84 00 	data16 nop WORD PTR cs:[rax+rax*1+0x0]
    3dbb:	00 00 00 00 
    3dbf:	66 66 2e 0f 1f 84 00 	data16 nop WORD PTR cs:[rax+rax*1+0x0]
    3dc6:	00 00 00 00 
    3dca:	66 66 2e 0f 1f 84 00 	data16 nop WORD PTR cs:[rax+rax*1+0x0]
    3dd1:	00 00 00 00 
    3dd5:	66 66 2e 0f 1f 84 00 	data16 nop WORD PTR cs:[rax+rax*1+0x0]
    3ddc:	00 00 00 00 
    3de0:	66 66 2e 0f 1f 84 00 	data16 nop WORD PTR cs:[rax+rax*1+0x0]
    3de7:	00 00 00 00 
    3deb:	66 66 2e 0f 1f 84 00 	data16 nop WORD PTR cs:[rax+rax*1+0x0]
    3df2:	00 00 00 00 
    3df6:	66 2e 0f 1f 84 00 00 	nop    WORD PTR cs:[rax+rax*1+0x0]
    3dfd:	00 00 00 

0000000000003e00 <function_22()>:

void function_22()
{
    3e00:	f3 0f 1e fa          	endbr64 
    3e04:	55                   	push   rbp
    3e05:	48 89 e5             	mov    rbp,rsp
    int i = 0;
    3e08:	c7 45 fc 00 00 00 00 	mov    DWORD PTR [rbp-0x4],0x0
    for (int j = 0; j < 10; j++)
    3e0f:	c7 45 f8 00 00 00 00 	mov    DWORD PTR [rbp-0x8],0x0
    3e16:	83 7d f8 09          	cmp    DWORD PTR [rbp-0x8],0x9
    3e1a:	7f 0f                	jg     3e2b <function_22()+0x2b>
    {
        i = j + 1;
    3e1c:	8b 45 f8             	mov    eax,DWORD PTR [rbp-0x8]
    3e1f:	83 c0 01             	add    eax,0x1
    3e22:	89 45 fc             	mov    DWORD PTR [rbp-0x4],eax
    for (int j = 0; j < 10; j++)
    3e25:	83 45 f8 01          	add    DWORD PTR [rbp-0x8],0x1
    3e29:	eb eb                	jmp    3e16 <function_22()+0x16>
    }
}
    3e2b:	90                   	nop
    3e2c:	5d                   	pop    rbp
    3e2d:	c3                   	ret    
    3e2e:	e9 cd 01 00 00       	jmp    4000 <function_23()>
    3e33:	66 66 2e 0f 1f 84 00 	data16 nop WORD PTR cs:[rax+rax*1+0x0]
    3e3a:	00 00 00 00 
    3e3e:	66 66 2e 0f 1f 84 00 	data16 nop WORD PTR cs:[rax+rax*1+0x0]
    3e45:	00 00 00 00 
    3e49:	66 66 2e 0f 1f 84 00 	data16 nop WORD PTR cs:[rax+rax*1+0x0]
    3e50:	00 00 00 00 
    3e54:	66 66 2e 0f 1f 84 00 	data16 nop WORD PTR cs:[rax+rax*1+0x0]
    3e5b:	00 00 00 00 
    3e5f:	66 66 2e 0f 1f 84 00 	data16 nop WORD PTR cs:[rax+rax*1+0x0]
    3e66:	00 00 00 00 
    3e6a:	66 66 2e 0f 1f 84 00 	data16 nop WORD PTR cs:[rax+rax*1+0x0]
    3e71:	00 00 00 00 
    3e75:	66 66 2e 0f 1f 84 00 	data16 nop WORD PTR cs:[rax+rax*1+0x0]
    3e7c:	00 00 00 00 
    3e80:	66 66 2e 0f 1f 84 00 	data16 nop WORD PTR cs:[rax+rax*1+0x0]
    3e87:	00 00 00 00 
    3e8b:	66 66 2e 0f 1f 84 00 	data16 nop WORD PTR cs:[rax+rax*1+0x0]
    3e92:	00 00 00 00 
    3e96:	66 66 2e 0f 1f 84 00 	data16 nop WORD PTR cs:[rax+rax*1+0x0]
    3e9d:	00 00 00 00 
    3ea1:	66 66 2e 0f 1f 84 00 	data16 nop WORD PTR cs:[rax+rax*1+0x0]
    3ea8:	00 00 00 00 
    3eac:	66 66 2e 0f 1f 84 00 	data16 nop WORD PTR cs:[rax+rax*1+0x0]
    3eb3:	00 00 00 00 
    3eb7:	66 66 2e 0f 1f 84 00 	data16 nop WORD PTR cs:[rax+rax*1+0x0]
    3ebe:	00 00 00 00 
    3ec2:	66 66 2e 0f 1f 84 00 	data16 nop WORD PTR cs:[rax+rax*1+0x0]
    3ec9:	00 00 00 00 
    3ecd:	66 66 2e 0f 1f 84 00 	data16 nop WORD PTR cs:[rax+rax*1+0x0]
    3ed4:	00 00 00 00 
    3ed8:	66 66 2e 0f 1f 84 00 	data16 nop WORD PTR cs:[rax+rax*1+0x0]
    3edf:	00 00 00 00 
    3ee3:	66 66 2e 0f 1f 84 00 	data16 nop WORD PTR cs:[rax+rax*1+0x0]
    3eea:	00 00 00 00 
    3eee:	66 66 2e 0f 1f 84 00 	data16 nop WORD PTR cs:[rax+rax*1+0x0]
    3ef5:	00 00 00 00 
    3ef9:	66 66 2e 0f 1f 84 00 	data16 nop WORD PTR cs:[rax+rax*1+0x0]
    3f00:	00 00 00 00 
    3f04:	66 66 2e 0f 1f 84 00 	data16 nop WORD PTR cs:[rax+rax*1+0x0]
    3f0b:	00 00 00 00 
    3f0f:	66 66 2e 0f 1f 84 00 	data16 nop WORD PTR cs:[rax+rax*1+0x0]
    3f16:	00 00 00 00 
    3f1a:	66 66 2e 0f 1f 84 00 	data16 nop WORD PTR cs:[rax+rax*1+0x0]
    3f21:	00 00 00 00 
    3f25:	66 66 2e 0f 1f 84 00 	data16 nop WORD PTR cs:[rax+rax*1+0x0]
    3f2c:	00 00 00 00 
    3f30:	66 66 2e 0f 1f 84 00 	data16 nop WORD PTR cs:[rax+rax*1+0x0]
    3f37:	00 00 00 00 
    3f3b:	66 66 2e 0f 1f 84 00 	data16 nop WORD PTR cs:[rax+rax*1+0x0]
    3f42:	00 00 00 00 
    3f46:	66 66 2e 0f 1f 84 00 	data16 nop WORD PTR cs:[rax+rax*1+0x0]
    3f4d:	00 00 00 00 
    3f51:	66 66 2e 0f 1f 84 00 	data16 nop WORD PTR cs:[rax+rax*1+0x0]
    3f58:	00 00 00 00 
    3f5c:	66 66 2e 0f 1f 84 00 	data16 nop WORD PTR cs:[rax+rax*1+0x0]
    3f63:	00 00 00 00 
    3f67:	66 66 2e 0f 1f 84 00 	data16 nop WORD PTR cs:[rax+rax*1+0x0]
    3f6e:	00 00 00 00 
    3f72:	66 66 2e 0f 1f 84 00 	data16 nop WORD PTR cs:[rax+rax*1+0x0]
    3f79:	00 00 00 00 
    3f7d:	66 66 2e 0f 1f 84 00 	data16 nop WORD PTR cs:[rax+rax*1+0x0]
    3f84:	00 00 00 00 
    3f88:	66 66 2e 0f 1f 84 00 	data16 nop WORD PTR cs:[rax+rax*1+0x0]
    3f8f:	00 00 00 00 
    3f93:	66 66 2e 0f 1f 84 00 	data16 nop WORD PTR cs:[rax+rax*1+0x0]
    3f9a:	00 00 00 00 
    3f9e:	66 66 2e 0f 1f 84 00 	data16 nop WORD PTR cs:[rax+rax*1+0x0]
    3fa5:	00 00 00 00 
    3fa9:	66 66 2e 0f 1f 84 00 	data16 nop WORD PTR cs:[rax+rax*1+0x0]
    3fb0:	00 00 00 00 
    3fb4:	66 66 2e 0f 1f 84 00 	data16 nop WORD PTR cs:[rax+rax*1+0x0]
    3fbb:	00 00 00 00 
    3fbf:	66 66 2e 0f 1f 84 00 	data16 nop WORD PTR cs:[rax+rax*1+0x0]
    3fc6:	00 00 00 00 
    3fca:	66 66 2e 0f 1f 84 00 	data16 nop WORD PTR cs:[rax+rax*1+0x0]
    3fd1:	00 00 00 00 
    3fd5:	66 66 2e 0f 1f 84 00 	data16 nop WORD PTR cs:[rax+rax*1+0x0]
    3fdc:	00 00 00 00 
    3fe0:	66 66 2e 0f 1f 84 00 	data16 nop WORD PTR cs:[rax+rax*1+0x0]
    3fe7:	00 00 00 00 
    3feb:	66 66 2e 0f 1f 84 00 	data16 nop WORD PTR cs:[rax+rax*1+0x0]
    3ff2:	00 00 00 00 
    3ff6:	66 2e 0f 1f 84 00 00 	nop    WORD PTR cs:[rax+rax*1+0x0]
    3ffd:	00 00 00 

0000000000004000 <function_23()>:

void function_23()
{
    4000:	f3 0f 1e fa          	endbr64 
    4004:	55                   	push   rbp
    4005:	48 89 e5             	mov    rbp,rsp
    int i = 0;
    4008:	c7 45 fc 00 00 00 00 	mov    DWORD PTR [rbp-0x4],0x0
    for (int j = 0; j < 10; j++)
    400f:	c7 45 f8 00 00 00 00 	mov    DWORD PTR [rbp-0x8],0x0
    4016:	83 7d f8 09          	cmp    DWORD PTR [rbp-0x8],0x9
    401a:	7f 0f                	jg     402b <function_23()+0x2b>
    {
        i = j + 1;
    401c:	8b 45 f8             	mov    eax,DWORD PTR [rbp-0x8]
    401f:	83 c0 01             	add    eax,0x1
    4022:	89 45 fc             	mov    DWORD PTR [rbp-0x4],eax
    for (int j = 0; j < 10; j++)
    4025:	83 45 f8 01          	add    DWORD PTR [rbp-0x8],0x1
    4029:	eb eb                	jmp    4016 <function_23()+0x16>
    }
}
    402b:	90                   	nop
    402c:	5d                   	pop    rbp
    402d:	c3                   	ret    
    402e:	e9 cd 01 00 00       	jmp    4200 <function_24()>
    4033:	66 66 2e 0f 1f 84 00 	data16 nop WORD PTR cs:[rax+rax*1+0x0]
    403a:	00 00 00 00 
    403e:	66 66 2e 0f 1f 84 00 	data16 nop WORD PTR cs:[rax+rax*1+0x0]
    4045:	00 00 00 00 
    4049:	66 66 2e 0f 1f 84 00 	data16 nop WORD PTR cs:[rax+rax*1+0x0]
    4050:	00 00 00 00 
    4054:	66 66 2e 0f 1f 84 00 	data16 nop WORD PTR cs:[rax+rax*1+0x0]
    405b:	00 00 00 00 
    405f:	66 66 2e 0f 1f 84 00 	data16 nop WORD PTR cs:[rax+rax*1+0x0]
    4066:	00 00 00 00 
    406a:	66 66 2e 0f 1f 84 00 	data16 nop WORD PTR cs:[rax+rax*1+0x0]
    4071:	00 00 00 00 
    4075:	66 66 2e 0f 1f 84 00 	data16 nop WORD PTR cs:[rax+rax*1+0x0]
    407c:	00 00 00 00 
    4080:	66 66 2e 0f 1f 84 00 	data16 nop WORD PTR cs:[rax+rax*1+0x0]
    4087:	00 00 00 00 
    408b:	66 66 2e 0f 1f 84 00 	data16 nop WORD PTR cs:[rax+rax*1+0x0]
    4092:	00 00 00 00 
    4096:	66 66 2e 0f 1f 84 00 	data16 nop WORD PTR cs:[rax+rax*1+0x0]
    409d:	00 00 00 00 
    40a1:	66 66 2e 0f 1f 84 00 	data16 nop WORD PTR cs:[rax+rax*1+0x0]
    40a8:	00 00 00 00 
    40ac:	66 66 2e 0f 1f 84 00 	data16 nop WORD PTR cs:[rax+rax*1+0x0]
    40b3:	00 00 00 00 
    40b7:	66 66 2e 0f 1f 84 00 	data16 nop WORD PTR cs:[rax+rax*1+0x0]
    40be:	00 00 00 00 
    40c2:	66 66 2e 0f 1f 84 00 	data16 nop WORD PTR cs:[rax+rax*1+0x0]
    40c9:	00 00 00 00 
    40cd:	66 66 2e 0f 1f 84 00 	data16 nop WORD PTR cs:[rax+rax*1+0x0]
    40d4:	00 00 00 00 
    40d8:	66 66 2e 0f 1f 84 00 	data16 nop WORD PTR cs:[rax+rax*1+0x0]
    40df:	00 00 00 00 
    40e3:	66 66 2e 0f 1f 84 00 	data16 nop WORD PTR cs:[rax+rax*1+0x0]
    40ea:	00 00 00 00 
    40ee:	66 66 2e 0f 1f 84 00 	data16 nop WORD PTR cs:[rax+rax*1+0x0]
    40f5:	00 00 00 00 
    40f9:	66 66 2e 0f 1f 84 00 	data16 nop WORD PTR cs:[rax+rax*1+0x0]
    4100:	00 00 00 00 
    4104:	66 66 2e 0f 1f 84 00 	data16 nop WORD PTR cs:[rax+rax*1+0x0]
    410b:	00 00 00 00 
    410f:	66 66 2e 0f 1f 84 00 	data16 nop WORD PTR cs:[rax+rax*1+0x0]
    4116:	00 00 00 00 
    411a:	66 66 2e 0f 1f 84 00 	data16 nop WORD PTR cs:[rax+rax*1+0x0]
    4121:	00 00 00 00 
    4125:	66 66 2e 0f 1f 84 00 	data16 nop WORD PTR cs:[rax+rax*1+0x0]
    412c:	00 00 00 00 
    4130:	66 66 2e 0f 1f 84 00 	data16 nop WORD PTR cs:[rax+rax*1+0x0]
    4137:	00 00 00 00 
    413b:	66 66 2e 0f 1f 84 00 	data16 nop WORD PTR cs:[rax+rax*1+0x0]
    4142:	00 00 00 00 
    4146:	66 66 2e 0f 1f 84 00 	data16 nop WORD PTR cs:[rax+rax*1+0x0]
    414d:	00 00 00 00 
    4151:	66 66 2e 0f 1f 84 00 	data16 nop WORD PTR cs:[rax+rax*1+0x0]
    4158:	00 00 00 00 
    415c:	66 66 2e 0f 1f 84 00 	data16 nop WORD PTR cs:[rax+rax*1+0x0]
    4163:	00 00 00 00 
    4167:	66 66 2e 0f 1f 84 00 	data16 nop WORD PTR cs:[rax+rax*1+0x0]
    416e:	00 00 00 00 
    4172:	66 66 2e 0f 1f 84 00 	data16 nop WORD PTR cs:[rax+rax*1+0x0]
    4179:	00 00 00 00 
    417d:	66 66 2e 0f 1f 84 00 	data16 nop WORD PTR cs:[rax+rax*1+0x0]
    4184:	00 00 00 00 
    4188:	66 66 2e 0f 1f 84 00 	data16 nop WORD PTR cs:[rax+rax*1+0x0]
    418f:	00 00 00 00 
    4193:	66 66 2e 0f 1f 84 00 	data16 nop WORD PTR cs:[rax+rax*1+0x0]
    419a:	00 00 00 00 
    419e:	66 66 2e 0f 1f 84 00 	data16 nop WORD PTR cs:[rax+rax*1+0x0]
    41a5:	00 00 00 00 
    41a9:	66 66 2e 0f 1f 84 00 	data16 nop WORD PTR cs:[rax+rax*1+0x0]
    41b0:	00 00 00 00 
    41b4:	66 66 2e 0f 1f 84 00 	data16 nop WORD PTR cs:[rax+rax*1+0x0]
    41bb:	00 00 00 00 
    41bf:	66 66 2e 0f 1f 84 00 	data16 nop WORD PTR cs:[rax+rax*1+0x0]
    41c6:	00 00 00 00 
    41ca:	66 66 2e 0f 1f 84 00 	data16 nop WORD PTR cs:[rax+rax*1+0x0]
    41d1:	00 00 00 00 
    41d5:	66 66 2e 0f 1f 84 00 	data16 nop WORD PTR cs:[rax+rax*1+0x0]
    41dc:	00 00 00 00 
    41e0:	66 66 2e 0f 1f 84 00 	data16 nop WORD PTR cs:[rax+rax*1+0x0]
    41e7:	00 00 00 00 
    41eb:	66 66 2e 0f 1f 84 00 	data16 nop WORD PTR cs:[rax+rax*1+0x0]
    41f2:	00 00 00 00 
    41f6:	66 2e 0f 1f 84 00 00 	nop    WORD PTR cs:[rax+rax*1+0x0]
    41fd:	00 00 00 

0000000000004200 <function_24()>:

void function_24()
{
    4200:	f3 0f 1e fa          	endbr64 
    4204:	55                   	push   rbp
    4205:	48 89 e5             	mov    rbp,rsp
    int i = 0;
    4208:	c7 45 fc 00 00 00 00 	mov    DWORD PTR [rbp-0x4],0x0
    for (int j = 0; j < 10; j++)
    420f:	c7 45 f8 00 00 00 00 	mov    DWORD PTR [rbp-0x8],0x0
    4216:	83 7d f8 09          	cmp    DWORD PTR [rbp-0x8],0x9
    421a:	7f 0f                	jg     422b <function_24()+0x2b>
    {
        i = j + 1;
    421c:	8b 45 f8             	mov    eax,DWORD PTR [rbp-0x8]
    421f:	83 c0 01             	add    eax,0x1
    4222:	89 45 fc             	mov    DWORD PTR [rbp-0x4],eax
    for (int j = 0; j < 10; j++)
    4225:	83 45 f8 01          	add    DWORD PTR [rbp-0x8],0x1
    4229:	eb eb                	jmp    4216 <function_24()+0x16>
    }
}
    422b:	90                   	nop
    422c:	5d                   	pop    rbp
    422d:	c3                   	ret    
    422e:	e9 cd 01 00 00       	jmp    4400 <function_25()>
    4233:	66 66 2e 0f 1f 84 00 	data16 nop WORD PTR cs:[rax+rax*1+0x0]
    423a:	00 00 00 00 
    423e:	66 66 2e 0f 1f 84 00 	data16 nop WORD PTR cs:[rax+rax*1+0x0]
    4245:	00 00 00 00 
    4249:	66 66 2e 0f 1f 84 00 	data16 nop WORD PTR cs:[rax+rax*1+0x0]
    4250:	00 00 00 00 
    4254:	66 66 2e 0f 1f 84 00 	data16 nop WORD PTR cs:[rax+rax*1+0x0]
    425b:	00 00 00 00 
    425f:	66 66 2e 0f 1f 84 00 	data16 nop WORD PTR cs:[rax+rax*1+0x0]
    4266:	00 00 00 00 
    426a:	66 66 2e 0f 1f 84 00 	data16 nop WORD PTR cs:[rax+rax*1+0x0]
    4271:	00 00 00 00 
    4275:	66 66 2e 0f 1f 84 00 	data16 nop WORD PTR cs:[rax+rax*1+0x0]
    427c:	00 00 00 00 
    4280:	66 66 2e 0f 1f 84 00 	data16 nop WORD PTR cs:[rax+rax*1+0x0]
    4287:	00 00 00 00 
    428b:	66 66 2e 0f 1f 84 00 	data16 nop WORD PTR cs:[rax+rax*1+0x0]
    4292:	00 00 00 00 
    4296:	66 66 2e 0f 1f 84 00 	data16 nop WORD PTR cs:[rax+rax*1+0x0]
    429d:	00 00 00 00 
    42a1:	66 66 2e 0f 1f 84 00 	data16 nop WORD PTR cs:[rax+rax*1+0x0]
    42a8:	00 00 00 00 
    42ac:	66 66 2e 0f 1f 84 00 	data16 nop WORD PTR cs:[rax+rax*1+0x0]
    42b3:	00 00 00 00 
    42b7:	66 66 2e 0f 1f 84 00 	data16 nop WORD PTR cs:[rax+rax*1+0x0]
    42be:	00 00 00 00 
    42c2:	66 66 2e 0f 1f 84 00 	data16 nop WORD PTR cs:[rax+rax*1+0x0]
    42c9:	00 00 00 00 
    42cd:	66 66 2e 0f 1f 84 00 	data16 nop WORD PTR cs:[rax+rax*1+0x0]
    42d4:	00 00 00 00 
    42d8:	66 66 2e 0f 1f 84 00 	data16 nop WORD PTR cs:[rax+rax*1+0x0]
    42df:	00 00 00 00 
    42e3:	66 66 2e 0f 1f 84 00 	data16 nop WORD PTR cs:[rax+rax*1+0x0]
    42ea:	00 00 00 00 
    42ee:	66 66 2e 0f 1f 84 00 	data16 nop WORD PTR cs:[rax+rax*1+0x0]
    42f5:	00 00 00 00 
    42f9:	66 66 2e 0f 1f 84 00 	data16 nop WORD PTR cs:[rax+rax*1+0x0]
    4300:	00 00 00 00 
    4304:	66 66 2e 0f 1f 84 00 	data16 nop WORD PTR cs:[rax+rax*1+0x0]
    430b:	00 00 00 00 
    430f:	66 66 2e 0f 1f 84 00 	data16 nop WORD PTR cs:[rax+rax*1+0x0]
    4316:	00 00 00 00 
    431a:	66 66 2e 0f 1f 84 00 	data16 nop WORD PTR cs:[rax+rax*1+0x0]
    4321:	00 00 00 00 
    4325:	66 66 2e 0f 1f 84 00 	data16 nop WORD PTR cs:[rax+rax*1+0x0]
    432c:	00 00 00 00 
    4330:	66 66 2e 0f 1f 84 00 	data16 nop WORD PTR cs:[rax+rax*1+0x0]
    4337:	00 00 00 00 
    433b:	66 66 2e 0f 1f 84 00 	data16 nop WORD PTR cs:[rax+rax*1+0x0]
    4342:	00 00 00 00 
    4346:	66 66 2e 0f 1f 84 00 	data16 nop WORD PTR cs:[rax+rax*1+0x0]
    434d:	00 00 00 00 
    4351:	66 66 2e 0f 1f 84 00 	data16 nop WORD PTR cs:[rax+rax*1+0x0]
    4358:	00 00 00 00 
    435c:	66 66 2e 0f 1f 84 00 	data16 nop WORD PTR cs:[rax+rax*1+0x0]
    4363:	00 00 00 00 
    4367:	66 66 2e 0f 1f 84 00 	data16 nop WORD PTR cs:[rax+rax*1+0x0]
    436e:	00 00 00 00 
    4372:	66 66 2e 0f 1f 84 00 	data16 nop WORD PTR cs:[rax+rax*1+0x0]
    4379:	00 00 00 00 
    437d:	66 66 2e 0f 1f 84 00 	data16 nop WORD PTR cs:[rax+rax*1+0x0]
    4384:	00 00 00 00 
    4388:	66 66 2e 0f 1f 84 00 	data16 nop WORD PTR cs:[rax+rax*1+0x0]
    438f:	00 00 00 00 
    4393:	66 66 2e 0f 1f 84 00 	data16 nop WORD PTR cs:[rax+rax*1+0x0]
    439a:	00 00 00 00 
    439e:	66 66 2e 0f 1f 84 00 	data16 nop WORD PTR cs:[rax+rax*1+0x0]
    43a5:	00 00 00 00 
    43a9:	66 66 2e 0f 1f 84 00 	data16 nop WORD PTR cs:[rax+rax*1+0x0]
    43b0:	00 00 00 00 
    43b4:	66 66 2e 0f 1f 84 00 	data16 nop WORD PTR cs:[rax+rax*1+0x0]
    43bb:	00 00 00 00 
    43bf:	66 66 2e 0f 1f 84 00 	data16 nop WORD PTR cs:[rax+rax*1+0x0]
    43c6:	00 00 00 00 
    43ca:	66 66 2e 0f 1f 84 00 	data16 nop WORD PTR cs:[rax+rax*1+0x0]
    43d1:	00 00 00 00 
    43d5:	66 66 2e 0f 1f 84 00 	data16 nop WORD PTR cs:[rax+rax*1+0x0]
    43dc:	00 00 00 00 
    43e0:	66 66 2e 0f 1f 84 00 	data16 nop WORD PTR cs:[rax+rax*1+0x0]
    43e7:	00 00 00 00 
    43eb:	66 66 2e 0f 1f 84 00 	data16 nop WORD PTR cs:[rax+rax*1+0x0]
    43f2:	00 00 00 00 
    43f6:	66 2e 0f 1f 84 00 00 	nop    WORD PTR cs:[rax+rax*1+0x0]
    43fd:	00 00 00 

0000000000004400 <function_25()>:

void function_25()
{
    4400:	f3 0f 1e fa          	endbr64 
    4404:	55                   	push   rbp
    4405:	48 89 e5             	mov    rbp,rsp
    int i = 0;
    4408:	c7 45 fc 00 00 00 00 	mov    DWORD PTR [rbp-0x4],0x0
    for (int j = 0; j < 10; j++)
    440f:	c7 45 f8 00 00 00 00 	mov    DWORD PTR [rbp-0x8],0x0
    4416:	83 7d f8 09          	cmp    DWORD PTR [rbp-0x8],0x9
    441a:	7f 0f                	jg     442b <function_25()+0x2b>
    {
        i = j + 1;
    441c:	8b 45 f8             	mov    eax,DWORD PTR [rbp-0x8]
    441f:	83 c0 01             	add    eax,0x1
    4422:	89 45 fc             	mov    DWORD PTR [rbp-0x4],eax
    for (int j = 0; j < 10; j++)
    4425:	83 45 f8 01          	add    DWORD PTR [rbp-0x8],0x1
    4429:	eb eb                	jmp    4416 <function_25()+0x16>
    }
}
    442b:	90                   	nop
    442c:	5d                   	pop    rbp
    442d:	c3                   	ret    
    442e:	e9 cd 01 00 00       	jmp    4600 <function_26()>
    4433:	66 66 2e 0f 1f 84 00 	data16 nop WORD PTR cs:[rax+rax*1+0x0]
    443a:	00 00 00 00 
    443e:	66 66 2e 0f 1f 84 00 	data16 nop WORD PTR cs:[rax+rax*1+0x0]
    4445:	00 00 00 00 
    4449:	66 66 2e 0f 1f 84 00 	data16 nop WORD PTR cs:[rax+rax*1+0x0]
    4450:	00 00 00 00 
    4454:	66 66 2e 0f 1f 84 00 	data16 nop WORD PTR cs:[rax+rax*1+0x0]
    445b:	00 00 00 00 
    445f:	66 66 2e 0f 1f 84 00 	data16 nop WORD PTR cs:[rax+rax*1+0x0]
    4466:	00 00 00 00 
    446a:	66 66 2e 0f 1f 84 00 	data16 nop WORD PTR cs:[rax+rax*1+0x0]
    4471:	00 00 00 00 
    4475:	66 66 2e 0f 1f 84 00 	data16 nop WORD PTR cs:[rax+rax*1+0x0]
    447c:	00 00 00 00 
    4480:	66 66 2e 0f 1f 84 00 	data16 nop WORD PTR cs:[rax+rax*1+0x0]
    4487:	00 00 00 00 
    448b:	66 66 2e 0f 1f 84 00 	data16 nop WORD PTR cs:[rax+rax*1+0x0]
    4492:	00 00 00 00 
    4496:	66 66 2e 0f 1f 84 00 	data16 nop WORD PTR cs:[rax+rax*1+0x0]
    449d:	00 00 00 00 
    44a1:	66 66 2e 0f 1f 84 00 	data16 nop WORD PTR cs:[rax+rax*1+0x0]
    44a8:	00 00 00 00 
    44ac:	66 66 2e 0f 1f 84 00 	data16 nop WORD PTR cs:[rax+rax*1+0x0]
    44b3:	00 00 00 00 
    44b7:	66 66 2e 0f 1f 84 00 	data16 nop WORD PTR cs:[rax+rax*1+0x0]
    44be:	00 00 00 00 
    44c2:	66 66 2e 0f 1f 84 00 	data16 nop WORD PTR cs:[rax+rax*1+0x0]
    44c9:	00 00 00 00 
    44cd:	66 66 2e 0f 1f 84 00 	data16 nop WORD PTR cs:[rax+rax*1+0x0]
    44d4:	00 00 00 00 
    44d8:	66 66 2e 0f 1f 84 00 	data16 nop WORD PTR cs:[rax+rax*1+0x0]
    44df:	00 00 00 00 
    44e3:	66 66 2e 0f 1f 84 00 	data16 nop WORD PTR cs:[rax+rax*1+0x0]
    44ea:	00 00 00 00 
    44ee:	66 66 2e 0f 1f 84 00 	data16 nop WORD PTR cs:[rax+rax*1+0x0]
    44f5:	00 00 00 00 
    44f9:	66 66 2e 0f 1f 84 00 	data16 nop WORD PTR cs:[rax+rax*1+0x0]
    4500:	00 00 00 00 
    4504:	66 66 2e 0f 1f 84 00 	data16 nop WORD PTR cs:[rax+rax*1+0x0]
    450b:	00 00 00 00 
    450f:	66 66 2e 0f 1f 84 00 	data16 nop WORD PTR cs:[rax+rax*1+0x0]
    4516:	00 00 00 00 
    451a:	66 66 2e 0f 1f 84 00 	data16 nop WORD PTR cs:[rax+rax*1+0x0]
    4521:	00 00 00 00 
    4525:	66 66 2e 0f 1f 84 00 	data16 nop WORD PTR cs:[rax+rax*1+0x0]
    452c:	00 00 00 00 
    4530:	66 66 2e 0f 1f 84 00 	data16 nop WORD PTR cs:[rax+rax*1+0x0]
    4537:	00 00 00 00 
    453b:	66 66 2e 0f 1f 84 00 	data16 nop WORD PTR cs:[rax+rax*1+0x0]
    4542:	00 00 00 00 
    4546:	66 66 2e 0f 1f 84 00 	data16 nop WORD PTR cs:[rax+rax*1+0x0]
    454d:	00 00 00 00 
    4551:	66 66 2e 0f 1f 84 00 	data16 nop WORD PTR cs:[rax+rax*1+0x0]
    4558:	00 00 00 00 
    455c:	66 66 2e 0f 1f 84 00 	data16 nop WORD PTR cs:[rax+rax*1+0x0]
    4563:	00 00 00 00 
    4567:	66 66 2e 0f 1f 84 00 	data16 nop WORD PTR cs:[rax+rax*1+0x0]
    456e:	00 00 00 00 
    4572:	66 66 2e 0f 1f 84 00 	data16 nop WORD PTR cs:[rax+rax*1+0x0]
    4579:	00 00 00 00 
    457d:	66 66 2e 0f 1f 84 00 	data16 nop WORD PTR cs:[rax+rax*1+0x0]
    4584:	00 00 00 00 
    4588:	66 66 2e 0f 1f 84 00 	data16 nop WORD PTR cs:[rax+rax*1+0x0]
    458f:	00 00 00 00 
    4593:	66 66 2e 0f 1f 84 00 	data16 nop WORD PTR cs:[rax+rax*1+0x0]
    459a:	00 00 00 00 
    459e:	66 66 2e 0f 1f 84 00 	data16 nop WORD PTR cs:[rax+rax*1+0x0]
    45a5:	00 00 00 00 
    45a9:	66 66 2e 0f 1f 84 00 	data16 nop WORD PTR cs:[rax+rax*1+0x0]
    45b0:	00 00 00 00 
    45b4:	66 66 2e 0f 1f 84 00 	data16 nop WORD PTR cs:[rax+rax*1+0x0]
    45bb:	00 00 00 00 
    45bf:	66 66 2e 0f 1f 84 00 	data16 nop WORD PTR cs:[rax+rax*1+0x0]
    45c6:	00 00 00 00 
    45ca:	66 66 2e 0f 1f 84 00 	data16 nop WORD PTR cs:[rax+rax*1+0x0]
    45d1:	00 00 00 00 
    45d5:	66 66 2e 0f 1f 84 00 	data16 nop WORD PTR cs:[rax+rax*1+0x0]
    45dc:	00 00 00 00 
    45e0:	66 66 2e 0f 1f 84 00 	data16 nop WORD PTR cs:[rax+rax*1+0x0]
    45e7:	00 00 00 00 
    45eb:	66 66 2e 0f 1f 84 00 	data16 nop WORD PTR cs:[rax+rax*1+0x0]
    45f2:	00 00 00 00 
    45f6:	66 2e 0f 1f 84 00 00 	nop    WORD PTR cs:[rax+rax*1+0x0]
    45fd:	00 00 00 

0000000000004600 <function_26()>:

void function_26()
{
    4600:	f3 0f 1e fa          	endbr64 
    4604:	55                   	push   rbp
    4605:	48 89 e5             	mov    rbp,rsp
    int i = 0;
    4608:	c7 45 fc 00 00 00 00 	mov    DWORD PTR [rbp-0x4],0x0
    for (int j = 0; j < 10; j++)
    460f:	c7 45 f8 00 00 00 00 	mov    DWORD PTR [rbp-0x8],0x0
    4616:	83 7d f8 09          	cmp    DWORD PTR [rbp-0x8],0x9
    461a:	7f 0f                	jg     462b <function_26()+0x2b>
    {
        i = j + 1;
    461c:	8b 45 f8             	mov    eax,DWORD PTR [rbp-0x8]
    461f:	83 c0 01             	add    eax,0x1
    4622:	89 45 fc             	mov    DWORD PTR [rbp-0x4],eax
    for (int j = 0; j < 10; j++)
    4625:	83 45 f8 01          	add    DWORD PTR [rbp-0x8],0x1
    4629:	eb eb                	jmp    4616 <function_26()+0x16>
    }
}
    462b:	90                   	nop
    462c:	5d                   	pop    rbp
    462d:	c3                   	ret    
    462e:	e9 cd 01 00 00       	jmp    4800 <function_27()>
    4633:	66 66 2e 0f 1f 84 00 	data16 nop WORD PTR cs:[rax+rax*1+0x0]
    463a:	00 00 00 00 
    463e:	66 66 2e 0f 1f 84 00 	data16 nop WORD PTR cs:[rax+rax*1+0x0]
    4645:	00 00 00 00 
    4649:	66 66 2e 0f 1f 84 00 	data16 nop WORD PTR cs:[rax+rax*1+0x0]
    4650:	00 00 00 00 
    4654:	66 66 2e 0f 1f 84 00 	data16 nop WORD PTR cs:[rax+rax*1+0x0]
    465b:	00 00 00 00 
    465f:	66 66 2e 0f 1f 84 00 	data16 nop WORD PTR cs:[rax+rax*1+0x0]
    4666:	00 00 00 00 
    466a:	66 66 2e 0f 1f 84 00 	data16 nop WORD PTR cs:[rax+rax*1+0x0]
    4671:	00 00 00 00 
    4675:	66 66 2e 0f 1f 84 00 	data16 nop WORD PTR cs:[rax+rax*1+0x0]
    467c:	00 00 00 00 
    4680:	66 66 2e 0f 1f 84 00 	data16 nop WORD PTR cs:[rax+rax*1+0x0]
    4687:	00 00 00 00 
    468b:	66 66 2e 0f 1f 84 00 	data16 nop WORD PTR cs:[rax+rax*1+0x0]
    4692:	00 00 00 00 
    4696:	66 66 2e 0f 1f 84 00 	data16 nop WORD PTR cs:[rax+rax*1+0x0]
    469d:	00 00 00 00 
    46a1:	66 66 2e 0f 1f 84 00 	data16 nop WORD PTR cs:[rax+rax*1+0x0]
    46a8:	00 00 00 00 
    46ac:	66 66 2e 0f 1f 84 00 	data16 nop WORD PTR cs:[rax+rax*1+0x0]
    46b3:	00 00 00 00 
    46b7:	66 66 2e 0f 1f 84 00 	data16 nop WORD PTR cs:[rax+rax*1+0x0]
    46be:	00 00 00 00 
    46c2:	66 66 2e 0f 1f 84 00 	data16 nop WORD PTR cs:[rax+rax*1+0x0]
    46c9:	00 00 00 00 
    46cd:	66 66 2e 0f 1f 84 00 	data16 nop WORD PTR cs:[rax+rax*1+0x0]
    46d4:	00 00 00 00 
    46d8:	66 66 2e 0f 1f 84 00 	data16 nop WORD PTR cs:[rax+rax*1+0x0]
    46df:	00 00 00 00 
    46e3:	66 66 2e 0f 1f 84 00 	data16 nop WORD PTR cs:[rax+rax*1+0x0]
    46ea:	00 00 00 00 
    46ee:	66 66 2e 0f 1f 84 00 	data16 nop WORD PTR cs:[rax+rax*1+0x0]
    46f5:	00 00 00 00 
    46f9:	66 66 2e 0f 1f 84 00 	data16 nop WORD PTR cs:[rax+rax*1+0x0]
    4700:	00 00 00 00 
    4704:	66 66 2e 0f 1f 84 00 	data16 nop WORD PTR cs:[rax+rax*1+0x0]
    470b:	00 00 00 00 
    470f:	66 66 2e 0f 1f 84 00 	data16 nop WORD PTR cs:[rax+rax*1+0x0]
    4716:	00 00 00 00 
    471a:	66 66 2e 0f 1f 84 00 	data16 nop WORD PTR cs:[rax+rax*1+0x0]
    4721:	00 00 00 00 
    4725:	66 66 2e 0f 1f 84 00 	data16 nop WORD PTR cs:[rax+rax*1+0x0]
    472c:	00 00 00 00 
    4730:	66 66 2e 0f 1f 84 00 	data16 nop WORD PTR cs:[rax+rax*1+0x0]
    4737:	00 00 00 00 
    473b:	66 66 2e 0f 1f 84 00 	data16 nop WORD PTR cs:[rax+rax*1+0x0]
    4742:	00 00 00 00 
    4746:	66 66 2e 0f 1f 84 00 	data16 nop WORD PTR cs:[rax+rax*1+0x0]
    474d:	00 00 00 00 
    4751:	66 66 2e 0f 1f 84 00 	data16 nop WORD PTR cs:[rax+rax*1+0x0]
    4758:	00 00 00 00 
    475c:	66 66 2e 0f 1f 84 00 	data16 nop WORD PTR cs:[rax+rax*1+0x0]
    4763:	00 00 00 00 
    4767:	66 66 2e 0f 1f 84 00 	data16 nop WORD PTR cs:[rax+rax*1+0x0]
    476e:	00 00 00 00 
    4772:	66 66 2e 0f 1f 84 00 	data16 nop WORD PTR cs:[rax+rax*1+0x0]
    4779:	00 00 00 00 
    477d:	66 66 2e 0f 1f 84 00 	data16 nop WORD PTR cs:[rax+rax*1+0x0]
    4784:	00 00 00 00 
    4788:	66 66 2e 0f 1f 84 00 	data16 nop WORD PTR cs:[rax+rax*1+0x0]
    478f:	00 00 00 00 
    4793:	66 66 2e 0f 1f 84 00 	data16 nop WORD PTR cs:[rax+rax*1+0x0]
    479a:	00 00 00 00 
    479e:	66 66 2e 0f 1f 84 00 	data16 nop WORD PTR cs:[rax+rax*1+0x0]
    47a5:	00 00 00 00 
    47a9:	66 66 2e 0f 1f 84 00 	data16 nop WORD PTR cs:[rax+rax*1+0x0]
    47b0:	00 00 00 00 
    47b4:	66 66 2e 0f 1f 84 00 	data16 nop WORD PTR cs:[rax+rax*1+0x0]
    47bb:	00 00 00 00 
    47bf:	66 66 2e 0f 1f 84 00 	data16 nop WORD PTR cs:[rax+rax*1+0x0]
    47c6:	00 00 00 00 
    47ca:	66 66 2e 0f 1f 84 00 	data16 nop WORD PTR cs:[rax+rax*1+0x0]
    47d1:	00 00 00 00 
    47d5:	66 66 2e 0f 1f 84 00 	data16 nop WORD PTR cs:[rax+rax*1+0x0]
    47dc:	00 00 00 00 
    47e0:	66 66 2e 0f 1f 84 00 	data16 nop WORD PTR cs:[rax+rax*1+0x0]
    47e7:	00 00 00 00 
    47eb:	66 66 2e 0f 1f 84 00 	data16 nop WORD PTR cs:[rax+rax*1+0x0]
    47f2:	00 00 00 00 
    47f6:	66 2e 0f 1f 84 00 00 	nop    WORD PTR cs:[rax+rax*1+0x0]
    47fd:	00 00 00 

0000000000004800 <function_27()>:

void function_27()
{
    4800:	f3 0f 1e fa          	endbr64 
    4804:	55                   	push   rbp
    4805:	48 89 e5             	mov    rbp,rsp
    int i = 0;
    4808:	c7 45 fc 00 00 00 00 	mov    DWORD PTR [rbp-0x4],0x0
    for (int j = 0; j < 10; j++)
    480f:	c7 45 f8 00 00 00 00 	mov    DWORD PTR [rbp-0x8],0x0
    4816:	83 7d f8 09          	cmp    DWORD PTR [rbp-0x8],0x9
    481a:	7f 0f                	jg     482b <function_27()+0x2b>
    {
        i = j + 1;
    481c:	8b 45 f8             	mov    eax,DWORD PTR [rbp-0x8]
    481f:	83 c0 01             	add    eax,0x1
    4822:	89 45 fc             	mov    DWORD PTR [rbp-0x4],eax
    for (int j = 0; j < 10; j++)
    4825:	83 45 f8 01          	add    DWORD PTR [rbp-0x8],0x1
    4829:	eb eb                	jmp    4816 <function_27()+0x16>
    }
}
    482b:	90                   	nop
    482c:	5d                   	pop    rbp
    482d:	c3                   	ret    
    482e:	e9 cd 01 00 00       	jmp    4a00 <function_28()>
    4833:	66 66 2e 0f 1f 84 00 	data16 nop WORD PTR cs:[rax+rax*1+0x0]
    483a:	00 00 00 00 
    483e:	66 66 2e 0f 1f 84 00 	data16 nop WORD PTR cs:[rax+rax*1+0x0]
    4845:	00 00 00 00 
    4849:	66 66 2e 0f 1f 84 00 	data16 nop WORD PTR cs:[rax+rax*1+0x0]
    4850:	00 00 00 00 
    4854:	66 66 2e 0f 1f 84 00 	data16 nop WORD PTR cs:[rax+rax*1+0x0]
    485b:	00 00 00 00 
    485f:	66 66 2e 0f 1f 84 00 	data16 nop WORD PTR cs:[rax+rax*1+0x0]
    4866:	00 00 00 00 
    486a:	66 66 2e 0f 1f 84 00 	data16 nop WORD PTR cs:[rax+rax*1+0x0]
    4871:	00 00 00 00 
    4875:	66 66 2e 0f 1f 84 00 	data16 nop WORD PTR cs:[rax+rax*1+0x0]
    487c:	00 00 00 00 
    4880:	66 66 2e 0f 1f 84 00 	data16 nop WORD PTR cs:[rax+rax*1+0x0]
    4887:	00 00 00 00 
    488b:	66 66 2e 0f 1f 84 00 	data16 nop WORD PTR cs:[rax+rax*1+0x0]
    4892:	00 00 00 00 
    4896:	66 66 2e 0f 1f 84 00 	data16 nop WORD PTR cs:[rax+rax*1+0x0]
    489d:	00 00 00 00 
    48a1:	66 66 2e 0f 1f 84 00 	data16 nop WORD PTR cs:[rax+rax*1+0x0]
    48a8:	00 00 00 00 
    48ac:	66 66 2e 0f 1f 84 00 	data16 nop WORD PTR cs:[rax+rax*1+0x0]
    48b3:	00 00 00 00 
    48b7:	66 66 2e 0f 1f 84 00 	data16 nop WORD PTR cs:[rax+rax*1+0x0]
    48be:	00 00 00 00 
    48c2:	66 66 2e 0f 1f 84 00 	data16 nop WORD PTR cs:[rax+rax*1+0x0]
    48c9:	00 00 00 00 
    48cd:	66 66 2e 0f 1f 84 00 	data16 nop WORD PTR cs:[rax+rax*1+0x0]
    48d4:	00 00 00 00 
    48d8:	66 66 2e 0f 1f 84 00 	data16 nop WORD PTR cs:[rax+rax*1+0x0]
    48df:	00 00 00 00 
    48e3:	66 66 2e 0f 1f 84 00 	data16 nop WORD PTR cs:[rax+rax*1+0x0]
    48ea:	00 00 00 00 
    48ee:	66 66 2e 0f 1f 84 00 	data16 nop WORD PTR cs:[rax+rax*1+0x0]
    48f5:	00 00 00 00 
    48f9:	66 66 2e 0f 1f 84 00 	data16 nop WORD PTR cs:[rax+rax*1+0x0]
    4900:	00 00 00 00 
    4904:	66 66 2e 0f 1f 84 00 	data16 nop WORD PTR cs:[rax+rax*1+0x0]
    490b:	00 00 00 00 
    490f:	66 66 2e 0f 1f 84 00 	data16 nop WORD PTR cs:[rax+rax*1+0x0]
    4916:	00 00 00 00 
    491a:	66 66 2e 0f 1f 84 00 	data16 nop WORD PTR cs:[rax+rax*1+0x0]
    4921:	00 00 00 00 
    4925:	66 66 2e 0f 1f 84 00 	data16 nop WORD PTR cs:[rax+rax*1+0x0]
    492c:	00 00 00 00 
    4930:	66 66 2e 0f 1f 84 00 	data16 nop WORD PTR cs:[rax+rax*1+0x0]
    4937:	00 00 00 00 
    493b:	66 66 2e 0f 1f 84 00 	data16 nop WORD PTR cs:[rax+rax*1+0x0]
    4942:	00 00 00 00 
    4946:	66 66 2e 0f 1f 84 00 	data16 nop WORD PTR cs:[rax+rax*1+0x0]
    494d:	00 00 00 00 
    4951:	66 66 2e 0f 1f 84 00 	data16 nop WORD PTR cs:[rax+rax*1+0x0]
    4958:	00 00 00 00 
    495c:	66 66 2e 0f 1f 84 00 	data16 nop WORD PTR cs:[rax+rax*1+0x0]
    4963:	00 00 00 00 
    4967:	66 66 2e 0f 1f 84 00 	data16 nop WORD PTR cs:[rax+rax*1+0x0]
    496e:	00 00 00 00 
    4972:	66 66 2e 0f 1f 84 00 	data16 nop WORD PTR cs:[rax+rax*1+0x0]
    4979:	00 00 00 00 
    497d:	66 66 2e 0f 1f 84 00 	data16 nop WORD PTR cs:[rax+rax*1+0x0]
    4984:	00 00 00 00 
    4988:	66 66 2e 0f 1f 84 00 	data16 nop WORD PTR cs:[rax+rax*1+0x0]
    498f:	00 00 00 00 
    4993:	66 66 2e 0f 1f 84 00 	data16 nop WORD PTR cs:[rax+rax*1+0x0]
    499a:	00 00 00 00 
    499e:	66 66 2e 0f 1f 84 00 	data16 nop WORD PTR cs:[rax+rax*1+0x0]
    49a5:	00 00 00 00 
    49a9:	66 66 2e 0f 1f 84 00 	data16 nop WORD PTR cs:[rax+rax*1+0x0]
    49b0:	00 00 00 00 
    49b4:	66 66 2e 0f 1f 84 00 	data16 nop WORD PTR cs:[rax+rax*1+0x0]
    49bb:	00 00 00 00 
    49bf:	66 66 2e 0f 1f 84 00 	data16 nop WORD PTR cs:[rax+rax*1+0x0]
    49c6:	00 00 00 00 
    49ca:	66 66 2e 0f 1f 84 00 	data16 nop WORD PTR cs:[rax+rax*1+0x0]
    49d1:	00 00 00 00 
    49d5:	66 66 2e 0f 1f 84 00 	data16 nop WORD PTR cs:[rax+rax*1+0x0]
    49dc:	00 00 00 00 
    49e0:	66 66 2e 0f 1f 84 00 	data16 nop WORD PTR cs:[rax+rax*1+0x0]
    49e7:	00 00 00 00 
    49eb:	66 66 2e 0f 1f 84 00 	data16 nop WORD PTR cs:[rax+rax*1+0x0]
    49f2:	00 00 00 00 
    49f6:	66 2e 0f 1f 84 00 00 	nop    WORD PTR cs:[rax+rax*1+0x0]
    49fd:	00 00 00 

0000000000004a00 <function_28()>:

void function_28()
{
    4a00:	f3 0f 1e fa          	endbr64 
    4a04:	55                   	push   rbp
    4a05:	48 89 e5             	mov    rbp,rsp
    int i = 0;
    4a08:	c7 45 fc 00 00 00 00 	mov    DWORD PTR [rbp-0x4],0x0
    for (int j = 0; j < 10; j++)
    4a0f:	c7 45 f8 00 00 00 00 	mov    DWORD PTR [rbp-0x8],0x0
    4a16:	83 7d f8 09          	cmp    DWORD PTR [rbp-0x8],0x9
    4a1a:	7f 0f                	jg     4a2b <function_28()+0x2b>
    {
        i = j + 1;
    4a1c:	8b 45 f8             	mov    eax,DWORD PTR [rbp-0x8]
    4a1f:	83 c0 01             	add    eax,0x1
    4a22:	89 45 fc             	mov    DWORD PTR [rbp-0x4],eax
    for (int j = 0; j < 10; j++)
    4a25:	83 45 f8 01          	add    DWORD PTR [rbp-0x8],0x1
    4a29:	eb eb                	jmp    4a16 <function_28()+0x16>
    }
}
    4a2b:	90                   	nop
    4a2c:	5d                   	pop    rbp
    4a2d:	c3                   	ret    
    4a2e:	e9 cd 01 00 00       	jmp    4c00 <function_29()>
    4a33:	66 66 2e 0f 1f 84 00 	data16 nop WORD PTR cs:[rax+rax*1+0x0]
    4a3a:	00 00 00 00 
    4a3e:	66 66 2e 0f 1f 84 00 	data16 nop WORD PTR cs:[rax+rax*1+0x0]
    4a45:	00 00 00 00 
    4a49:	66 66 2e 0f 1f 84 00 	data16 nop WORD PTR cs:[rax+rax*1+0x0]
    4a50:	00 00 00 00 
    4a54:	66 66 2e 0f 1f 84 00 	data16 nop WORD PTR cs:[rax+rax*1+0x0]
    4a5b:	00 00 00 00 
    4a5f:	66 66 2e 0f 1f 84 00 	data16 nop WORD PTR cs:[rax+rax*1+0x0]
    4a66:	00 00 00 00 
    4a6a:	66 66 2e 0f 1f 84 00 	data16 nop WORD PTR cs:[rax+rax*1+0x0]
    4a71:	00 00 00 00 
    4a75:	66 66 2e 0f 1f 84 00 	data16 nop WORD PTR cs:[rax+rax*1+0x0]
    4a7c:	00 00 00 00 
    4a80:	66 66 2e 0f 1f 84 00 	data16 nop WORD PTR cs:[rax+rax*1+0x0]
    4a87:	00 00 00 00 
    4a8b:	66 66 2e 0f 1f 84 00 	data16 nop WORD PTR cs:[rax+rax*1+0x0]
    4a92:	00 00 00 00 
    4a96:	66 66 2e 0f 1f 84 00 	data16 nop WORD PTR cs:[rax+rax*1+0x0]
    4a9d:	00 00 00 00 
    4aa1:	66 66 2e 0f 1f 84 00 	data16 nop WORD PTR cs:[rax+rax*1+0x0]
    4aa8:	00 00 00 00 
    4aac:	66 66 2e 0f 1f 84 00 	data16 nop WORD PTR cs:[rax+rax*1+0x0]
    4ab3:	00 00 00 00 
    4ab7:	66 66 2e 0f 1f 84 00 	data16 nop WORD PTR cs:[rax+rax*1+0x0]
    4abe:	00 00 00 00 
    4ac2:	66 66 2e 0f 1f 84 00 	data16 nop WORD PTR cs:[rax+rax*1+0x0]
    4ac9:	00 00 00 00 
    4acd:	66 66 2e 0f 1f 84 00 	data16 nop WORD PTR cs:[rax+rax*1+0x0]
    4ad4:	00 00 00 00 
    4ad8:	66 66 2e 0f 1f 84 00 	data16 nop WORD PTR cs:[rax+rax*1+0x0]
    4adf:	00 00 00 00 
    4ae3:	66 66 2e 0f 1f 84 00 	data16 nop WORD PTR cs:[rax+rax*1+0x0]
    4aea:	00 00 00 00 
    4aee:	66 66 2e 0f 1f 84 00 	data16 nop WORD PTR cs:[rax+rax*1+0x0]
    4af5:	00 00 00 00 
    4af9:	66 66 2e 0f 1f 84 00 	data16 nop WORD PTR cs:[rax+rax*1+0x0]
    4b00:	00 00 00 00 
    4b04:	66 66 2e 0f 1f 84 00 	data16 nop WORD PTR cs:[rax+rax*1+0x0]
    4b0b:	00 00 00 00 
    4b0f:	66 66 2e 0f 1f 84 00 	data16 nop WORD PTR cs:[rax+rax*1+0x0]
    4b16:	00 00 00 00 
    4b1a:	66 66 2e 0f 1f 84 00 	data16 nop WORD PTR cs:[rax+rax*1+0x0]
    4b21:	00 00 00 00 
    4b25:	66 66 2e 0f 1f 84 00 	data16 nop WORD PTR cs:[rax+rax*1+0x0]
    4b2c:	00 00 00 00 
    4b30:	66 66 2e 0f 1f 84 00 	data16 nop WORD PTR cs:[rax+rax*1+0x0]
    4b37:	00 00 00 00 
    4b3b:	66 66 2e 0f 1f 84 00 	data16 nop WORD PTR cs:[rax+rax*1+0x0]
    4b42:	00 00 00 00 
    4b46:	66 66 2e 0f 1f 84 00 	data16 nop WORD PTR cs:[rax+rax*1+0x0]
    4b4d:	00 00 00 00 
    4b51:	66 66 2e 0f 1f 84 00 	data16 nop WORD PTR cs:[rax+rax*1+0x0]
    4b58:	00 00 00 00 
    4b5c:	66 66 2e 0f 1f 84 00 	data16 nop WORD PTR cs:[rax+rax*1+0x0]
    4b63:	00 00 00 00 
    4b67:	66 66 2e 0f 1f 84 00 	data16 nop WORD PTR cs:[rax+rax*1+0x0]
    4b6e:	00 00 00 00 
    4b72:	66 66 2e 0f 1f 84 00 	data16 nop WORD PTR cs:[rax+rax*1+0x0]
    4b79:	00 00 00 00 
    4b7d:	66 66 2e 0f 1f 84 00 	data16 nop WORD PTR cs:[rax+rax*1+0x0]
    4b84:	00 00 00 00 
    4b88:	66 66 2e 0f 1f 84 00 	data16 nop WORD PTR cs:[rax+rax*1+0x0]
    4b8f:	00 00 00 00 
    4b93:	66 66 2e 0f 1f 84 00 	data16 nop WORD PTR cs:[rax+rax*1+0x0]
    4b9a:	00 00 00 00 
    4b9e:	66 66 2e 0f 1f 84 00 	data16 nop WORD PTR cs:[rax+rax*1+0x0]
    4ba5:	00 00 00 00 
    4ba9:	66 66 2e 0f 1f 84 00 	data16 nop WORD PTR cs:[rax+rax*1+0x0]
    4bb0:	00 00 00 00 
    4bb4:	66 66 2e 0f 1f 84 00 	data16 nop WORD PTR cs:[rax+rax*1+0x0]
    4bbb:	00 00 00 00 
    4bbf:	66 66 2e 0f 1f 84 00 	data16 nop WORD PTR cs:[rax+rax*1+0x0]
    4bc6:	00 00 00 00 
    4bca:	66 66 2e 0f 1f 84 00 	data16 nop WORD PTR cs:[rax+rax*1+0x0]
    4bd1:	00 00 00 00 
    4bd5:	66 66 2e 0f 1f 84 00 	data16 nop WORD PTR cs:[rax+rax*1+0x0]
    4bdc:	00 00 00 00 
    4be0:	66 66 2e 0f 1f 84 00 	data16 nop WORD PTR cs:[rax+rax*1+0x0]
    4be7:	00 00 00 00 
    4beb:	66 66 2e 0f 1f 84 00 	data16 nop WORD PTR cs:[rax+rax*1+0x0]
    4bf2:	00 00 00 00 
    4bf6:	66 2e 0f 1f 84 00 00 	nop    WORD PTR cs:[rax+rax*1+0x0]
    4bfd:	00 00 00 

0000000000004c00 <function_29()>:

void function_29()
{
    4c00:	f3 0f 1e fa          	endbr64 
    4c04:	55                   	push   rbp
    4c05:	48 89 e5             	mov    rbp,rsp
    int i = 0;
    4c08:	c7 45 fc 00 00 00 00 	mov    DWORD PTR [rbp-0x4],0x0
    for (int j = 0; j < 10; j++)
    4c0f:	c7 45 f8 00 00 00 00 	mov    DWORD PTR [rbp-0x8],0x0
    4c16:	83 7d f8 09          	cmp    DWORD PTR [rbp-0x8],0x9
    4c1a:	7f 0f                	jg     4c2b <function_29()+0x2b>
    {
        i = j + 1;
    4c1c:	8b 45 f8             	mov    eax,DWORD PTR [rbp-0x8]
    4c1f:	83 c0 01             	add    eax,0x1
    4c22:	89 45 fc             	mov    DWORD PTR [rbp-0x4],eax
    for (int j = 0; j < 10; j++)
    4c25:	83 45 f8 01          	add    DWORD PTR [rbp-0x8],0x1
    4c29:	eb eb                	jmp    4c16 <function_29()+0x16>
    }
}
    4c2b:	90                   	nop
    4c2c:	5d                   	pop    rbp
    4c2d:	c3                   	ret    
    4c2e:	e9 cd 01 00 00       	jmp    4e00 <function_30()>
    4c33:	66 66 2e 0f 1f 84 00 	data16 nop WORD PTR cs:[rax+rax*1+0x0]
    4c3a:	00 00 00 00 
    4c3e:	66 66 2e 0f 1f 84 00 	data16 nop WORD PTR cs:[rax+rax*1+0x0]
    4c45:	00 00 00 00 
    4c49:	66 66 2e 0f 1f 84 00 	data16 nop WORD PTR cs:[rax+rax*1+0x0]
    4c50:	00 00 00 00 
    4c54:	66 66 2e 0f 1f 84 00 	data16 nop WORD PTR cs:[rax+rax*1+0x0]
    4c5b:	00 00 00 00 
    4c5f:	66 66 2e 0f 1f 84 00 	data16 nop WORD PTR cs:[rax+rax*1+0x0]
    4c66:	00 00 00 00 
    4c6a:	66 66 2e 0f 1f 84 00 	data16 nop WORD PTR cs:[rax+rax*1+0x0]
    4c71:	00 00 00 00 
    4c75:	66 66 2e 0f 1f 84 00 	data16 nop WORD PTR cs:[rax+rax*1+0x0]
    4c7c:	00 00 00 00 
    4c80:	66 66 2e 0f 1f 84 00 	data16 nop WORD PTR cs:[rax+rax*1+0x0]
    4c87:	00 00 00 00 
    4c8b:	66 66 2e 0f 1f 84 00 	data16 nop WORD PTR cs:[rax+rax*1+0x0]
    4c92:	00 00 00 00 
    4c96:	66 66 2e 0f 1f 84 00 	data16 nop WORD PTR cs:[rax+rax*1+0x0]
    4c9d:	00 00 00 00 
    4ca1:	66 66 2e 0f 1f 84 00 	data16 nop WORD PTR cs:[rax+rax*1+0x0]
    4ca8:	00 00 00 00 
    4cac:	66 66 2e 0f 1f 84 00 	data16 nop WORD PTR cs:[rax+rax*1+0x0]
    4cb3:	00 00 00 00 
    4cb7:	66 66 2e 0f 1f 84 00 	data16 nop WORD PTR cs:[rax+rax*1+0x0]
    4cbe:	00 00 00 00 
    4cc2:	66 66 2e 0f 1f 84 00 	data16 nop WORD PTR cs:[rax+rax*1+0x0]
    4cc9:	00 00 00 00 
    4ccd:	66 66 2e 0f 1f 84 00 	data16 nop WORD PTR cs:[rax+rax*1+0x0]
    4cd4:	00 00 00 00 
    4cd8:	66 66 2e 0f 1f 84 00 	data16 nop WORD PTR cs:[rax+rax*1+0x0]
    4cdf:	00 00 00 00 
    4ce3:	66 66 2e 0f 1f 84 00 	data16 nop WORD PTR cs:[rax+rax*1+0x0]
    4cea:	00 00 00 00 
    4cee:	66 66 2e 0f 1f 84 00 	data16 nop WORD PTR cs:[rax+rax*1+0x0]
    4cf5:	00 00 00 00 
    4cf9:	66 66 2e 0f 1f 84 00 	data16 nop WORD PTR cs:[rax+rax*1+0x0]
    4d00:	00 00 00 00 
    4d04:	66 66 2e 0f 1f 84 00 	data16 nop WORD PTR cs:[rax+rax*1+0x0]
    4d0b:	00 00 00 00 
    4d0f:	66 66 2e 0f 1f 84 00 	data16 nop WORD PTR cs:[rax+rax*1+0x0]
    4d16:	00 00 00 00 
    4d1a:	66 66 2e 0f 1f 84 00 	data16 nop WORD PTR cs:[rax+rax*1+0x0]
    4d21:	00 00 00 00 
    4d25:	66 66 2e 0f 1f 84 00 	data16 nop WORD PTR cs:[rax+rax*1+0x0]
    4d2c:	00 00 00 00 
    4d30:	66 66 2e 0f 1f 84 00 	data16 nop WORD PTR cs:[rax+rax*1+0x0]
    4d37:	00 00 00 00 
    4d3b:	66 66 2e 0f 1f 84 00 	data16 nop WORD PTR cs:[rax+rax*1+0x0]
    4d42:	00 00 00 00 
    4d46:	66 66 2e 0f 1f 84 00 	data16 nop WORD PTR cs:[rax+rax*1+0x0]
    4d4d:	00 00 00 00 
    4d51:	66 66 2e 0f 1f 84 00 	data16 nop WORD PTR cs:[rax+rax*1+0x0]
    4d58:	00 00 00 00 
    4d5c:	66 66 2e 0f 1f 84 00 	data16 nop WORD PTR cs:[rax+rax*1+0x0]
    4d63:	00 00 00 00 
    4d67:	66 66 2e 0f 1f 84 00 	data16 nop WORD PTR cs:[rax+rax*1+0x0]
    4d6e:	00 00 00 00 
    4d72:	66 66 2e 0f 1f 84 00 	data16 nop WORD PTR cs:[rax+rax*1+0x0]
    4d79:	00 00 00 00 
    4d7d:	66 66 2e 0f 1f 84 00 	data16 nop WORD PTR cs:[rax+rax*1+0x0]
    4d84:	00 00 00 00 
    4d88:	66 66 2e 0f 1f 84 00 	data16 nop WORD PTR cs:[rax+rax*1+0x0]
    4d8f:	00 00 00 00 
    4d93:	66 66 2e 0f 1f 84 00 	data16 nop WORD PTR cs:[rax+rax*1+0x0]
    4d9a:	00 00 00 00 
    4d9e:	66 66 2e 0f 1f 84 00 	data16 nop WORD PTR cs:[rax+rax*1+0x0]
    4da5:	00 00 00 00 
    4da9:	66 66 2e 0f 1f 84 00 	data16 nop WORD PTR cs:[rax+rax*1+0x0]
    4db0:	00 00 00 00 
    4db4:	66 66 2e 0f 1f 84 00 	data16 nop WORD PTR cs:[rax+rax*1+0x0]
    4dbb:	00 00 00 00 
    4dbf:	66 66 2e 0f 1f 84 00 	data16 nop WORD PTR cs:[rax+rax*1+0x0]
    4dc6:	00 00 00 00 
    4dca:	66 66 2e 0f 1f 84 00 	data16 nop WORD PTR cs:[rax+rax*1+0x0]
    4dd1:	00 00 00 00 
    4dd5:	66 66 2e 0f 1f 84 00 	data16 nop WORD PTR cs:[rax+rax*1+0x0]
    4ddc:	00 00 00 00 
    4de0:	66 66 2e 0f 1f 84 00 	data16 nop WORD PTR cs:[rax+rax*1+0x0]
    4de7:	00 00 00 00 
    4deb:	66 66 2e 0f 1f 84 00 	data16 nop WORD PTR cs:[rax+rax*1+0x0]
    4df2:	00 00 00 00 
    4df6:	66 2e 0f 1f 84 00 00 	nop    WORD PTR cs:[rax+rax*1+0x0]
    4dfd:	00 00 00 

0000000000004e00 <function_30()>:

void function_30()
{
    4e00:	f3 0f 1e fa          	endbr64 
    4e04:	55                   	push   rbp
    4e05:	48 89 e5             	mov    rbp,rsp
    int i = 0;
    4e08:	c7 45 fc 00 00 00 00 	mov    DWORD PTR [rbp-0x4],0x0
    for (int j = 0; j < 10; j++)
    4e0f:	c7 45 f8 00 00 00 00 	mov    DWORD PTR [rbp-0x8],0x0
    4e16:	83 7d f8 09          	cmp    DWORD PTR [rbp-0x8],0x9
    4e1a:	7f 0f                	jg     4e2b <function_30()+0x2b>
    {
        i = j + 1;
    4e1c:	8b 45 f8             	mov    eax,DWORD PTR [rbp-0x8]
    4e1f:	83 c0 01             	add    eax,0x1
    4e22:	89 45 fc             	mov    DWORD PTR [rbp-0x4],eax
    for (int j = 0; j < 10; j++)
    4e25:	83 45 f8 01          	add    DWORD PTR [rbp-0x8],0x1
    4e29:	eb eb                	jmp    4e16 <function_30()+0x16>
    }
}
    4e2b:	90                   	nop
    4e2c:	5d                   	pop    rbp
    4e2d:	c3                   	ret    
    4e2e:	e9 cd 01 00 00       	jmp    5000 <function_31()>
    4e33:	66 66 2e 0f 1f 84 00 	data16 nop WORD PTR cs:[rax+rax*1+0x0]
    4e3a:	00 00 00 00 
    4e3e:	66 66 2e 0f 1f 84 00 	data16 nop WORD PTR cs:[rax+rax*1+0x0]
    4e45:	00 00 00 00 
    4e49:	66 66 2e 0f 1f 84 00 	data16 nop WORD PTR cs:[rax+rax*1+0x0]
    4e50:	00 00 00 00 
    4e54:	66 66 2e 0f 1f 84 00 	data16 nop WORD PTR cs:[rax+rax*1+0x0]
    4e5b:	00 00 00 00 
    4e5f:	66 66 2e 0f 1f 84 00 	data16 nop WORD PTR cs:[rax+rax*1+0x0]
    4e66:	00 00 00 00 
    4e6a:	66 66 2e 0f 1f 84 00 	data16 nop WORD PTR cs:[rax+rax*1+0x0]
    4e71:	00 00 00 00 
    4e75:	66 66 2e 0f 1f 84 00 	data16 nop WORD PTR cs:[rax+rax*1+0x0]
    4e7c:	00 00 00 00 
    4e80:	66 66 2e 0f 1f 84 00 	data16 nop WORD PTR cs:[rax+rax*1+0x0]
    4e87:	00 00 00 00 
    4e8b:	66 66 2e 0f 1f 84 00 	data16 nop WORD PTR cs:[rax+rax*1+0x0]
    4e92:	00 00 00 00 
    4e96:	66 66 2e 0f 1f 84 00 	data16 nop WORD PTR cs:[rax+rax*1+0x0]
    4e9d:	00 00 00 00 
    4ea1:	66 66 2e 0f 1f 84 00 	data16 nop WORD PTR cs:[rax+rax*1+0x0]
    4ea8:	00 00 00 00 
    4eac:	66 66 2e 0f 1f 84 00 	data16 nop WORD PTR cs:[rax+rax*1+0x0]
    4eb3:	00 00 00 00 
    4eb7:	66 66 2e 0f 1f 84 00 	data16 nop WORD PTR cs:[rax+rax*1+0x0]
    4ebe:	00 00 00 00 
    4ec2:	66 66 2e 0f 1f 84 00 	data16 nop WORD PTR cs:[rax+rax*1+0x0]
    4ec9:	00 00 00 00 
    4ecd:	66 66 2e 0f 1f 84 00 	data16 nop WORD PTR cs:[rax+rax*1+0x0]
    4ed4:	00 00 00 00 
    4ed8:	66 66 2e 0f 1f 84 00 	data16 nop WORD PTR cs:[rax+rax*1+0x0]
    4edf:	00 00 00 00 
    4ee3:	66 66 2e 0f 1f 84 00 	data16 nop WORD PTR cs:[rax+rax*1+0x0]
    4eea:	00 00 00 00 
    4eee:	66 66 2e 0f 1f 84 00 	data16 nop WORD PTR cs:[rax+rax*1+0x0]
    4ef5:	00 00 00 00 
    4ef9:	66 66 2e 0f 1f 84 00 	data16 nop WORD PTR cs:[rax+rax*1+0x0]
    4f00:	00 00 00 00 
    4f04:	66 66 2e 0f 1f 84 00 	data16 nop WORD PTR cs:[rax+rax*1+0x0]
    4f0b:	00 00 00 00 
    4f0f:	66 66 2e 0f 1f 84 00 	data16 nop WORD PTR cs:[rax+rax*1+0x0]
    4f16:	00 00 00 00 
    4f1a:	66 66 2e 0f 1f 84 00 	data16 nop WORD PTR cs:[rax+rax*1+0x0]
    4f21:	00 00 00 00 
    4f25:	66 66 2e 0f 1f 84 00 	data16 nop WORD PTR cs:[rax+rax*1+0x0]
    4f2c:	00 00 00 00 
    4f30:	66 66 2e 0f 1f 84 00 	data16 nop WORD PTR cs:[rax+rax*1+0x0]
    4f37:	00 00 00 00 
    4f3b:	66 66 2e 0f 1f 84 00 	data16 nop WORD PTR cs:[rax+rax*1+0x0]
    4f42:	00 00 00 00 
    4f46:	66 66 2e 0f 1f 84 00 	data16 nop WORD PTR cs:[rax+rax*1+0x0]
    4f4d:	00 00 00 00 
    4f51:	66 66 2e 0f 1f 84 00 	data16 nop WORD PTR cs:[rax+rax*1+0x0]
    4f58:	00 00 00 00 
    4f5c:	66 66 2e 0f 1f 84 00 	data16 nop WORD PTR cs:[rax+rax*1+0x0]
    4f63:	00 00 00 00 
    4f67:	66 66 2e 0f 1f 84 00 	data16 nop WORD PTR cs:[rax+rax*1+0x0]
    4f6e:	00 00 00 00 
    4f72:	66 66 2e 0f 1f 84 00 	data16 nop WORD PTR cs:[rax+rax*1+0x0]
    4f79:	00 00 00 00 
    4f7d:	66 66 2e 0f 1f 84 00 	data16 nop WORD PTR cs:[rax+rax*1+0x0]
    4f84:	00 00 00 00 
    4f88:	66 66 2e 0f 1f 84 00 	data16 nop WORD PTR cs:[rax+rax*1+0x0]
    4f8f:	00 00 00 00 
    4f93:	66 66 2e 0f 1f 84 00 	data16 nop WORD PTR cs:[rax+rax*1+0x0]
    4f9a:	00 00 00 00 
    4f9e:	66 66 2e 0f 1f 84 00 	data16 nop WORD PTR cs:[rax+rax*1+0x0]
    4fa5:	00 00 00 00 
    4fa9:	66 66 2e 0f 1f 84 00 	data16 nop WORD PTR cs:[rax+rax*1+0x0]
    4fb0:	00 00 00 00 
    4fb4:	66 66 2e 0f 1f 84 00 	data16 nop WORD PTR cs:[rax+rax*1+0x0]
    4fbb:	00 00 00 00 
    4fbf:	66 66 2e 0f 1f 84 00 	data16 nop WORD PTR cs:[rax+rax*1+0x0]
    4fc6:	00 00 00 00 
    4fca:	66 66 2e 0f 1f 84 00 	data16 nop WORD PTR cs:[rax+rax*1+0x0]
    4fd1:	00 00 00 00 
    4fd5:	66 66 2e 0f 1f 84 00 	data16 nop WORD PTR cs:[rax+rax*1+0x0]
    4fdc:	00 00 00 00 
    4fe0:	66 66 2e 0f 1f 84 00 	data16 nop WORD PTR cs:[rax+rax*1+0x0]
    4fe7:	00 00 00 00 
    4feb:	66 66 2e 0f 1f 84 00 	data16 nop WORD PTR cs:[rax+rax*1+0x0]
    4ff2:	00 00 00 00 
    4ff6:	66 2e 0f 1f 84 00 00 	nop    WORD PTR cs:[rax+rax*1+0x0]
    4ffd:	00 00 00 

0000000000005000 <function_31()>:

void function_31()
{
    5000:	f3 0f 1e fa          	endbr64 
    5004:	55                   	push   rbp
    5005:	48 89 e5             	mov    rbp,rsp
    int i = 0;
    5008:	c7 45 fc 00 00 00 00 	mov    DWORD PTR [rbp-0x4],0x0
    for (int j = 0; j < 10; j++)
    500f:	c7 45 f8 00 00 00 00 	mov    DWORD PTR [rbp-0x8],0x0
    5016:	83 7d f8 09          	cmp    DWORD PTR [rbp-0x8],0x9
    501a:	7f 0f                	jg     502b <function_31()+0x2b>
    {
        i = j + 1;
    501c:	8b 45 f8             	mov    eax,DWORD PTR [rbp-0x8]
    501f:	83 c0 01             	add    eax,0x1
    5022:	89 45 fc             	mov    DWORD PTR [rbp-0x4],eax
    for (int j = 0; j < 10; j++)
    5025:	83 45 f8 01          	add    DWORD PTR [rbp-0x8],0x1
    5029:	eb eb                	jmp    5016 <function_31()+0x16>
    }
}
    502b:	90                   	nop
    502c:	5d                   	pop    rbp
    502d:	c3                   	ret    
    502e:	e9 cd 01 00 00       	jmp    5200 <function_32()>
    5033:	66 66 2e 0f 1f 84 00 	data16 nop WORD PTR cs:[rax+rax*1+0x0]
    503a:	00 00 00 00 
    503e:	66 66 2e 0f 1f 84 00 	data16 nop WORD PTR cs:[rax+rax*1+0x0]
    5045:	00 00 00 00 
    5049:	66 66 2e 0f 1f 84 00 	data16 nop WORD PTR cs:[rax+rax*1+0x0]
    5050:	00 00 00 00 
    5054:	66 66 2e 0f 1f 84 00 	data16 nop WORD PTR cs:[rax+rax*1+0x0]
    505b:	00 00 00 00 
    505f:	66 66 2e 0f 1f 84 00 	data16 nop WORD PTR cs:[rax+rax*1+0x0]
    5066:	00 00 00 00 
    506a:	66 66 2e 0f 1f 84 00 	data16 nop WORD PTR cs:[rax+rax*1+0x0]
    5071:	00 00 00 00 
    5075:	66 66 2e 0f 1f 84 00 	data16 nop WORD PTR cs:[rax+rax*1+0x0]
    507c:	00 00 00 00 
    5080:	66 66 2e 0f 1f 84 00 	data16 nop WORD PTR cs:[rax+rax*1+0x0]
    5087:	00 00 00 00 
    508b:	66 66 2e 0f 1f 84 00 	data16 nop WORD PTR cs:[rax+rax*1+0x0]
    5092:	00 00 00 00 
    5096:	66 66 2e 0f 1f 84 00 	data16 nop WORD PTR cs:[rax+rax*1+0x0]
    509d:	00 00 00 00 
    50a1:	66 66 2e 0f 1f 84 00 	data16 nop WORD PTR cs:[rax+rax*1+0x0]
    50a8:	00 00 00 00 
    50ac:	66 66 2e 0f 1f 84 00 	data16 nop WORD PTR cs:[rax+rax*1+0x0]
    50b3:	00 00 00 00 
    50b7:	66 66 2e 0f 1f 84 00 	data16 nop WORD PTR cs:[rax+rax*1+0x0]
    50be:	00 00 00 00 
    50c2:	66 66 2e 0f 1f 84 00 	data16 nop WORD PTR cs:[rax+rax*1+0x0]
    50c9:	00 00 00 00 
    50cd:	66 66 2e 0f 1f 84 00 	data16 nop WORD PTR cs:[rax+rax*1+0x0]
    50d4:	00 00 00 00 
    50d8:	66 66 2e 0f 1f 84 00 	data16 nop WORD PTR cs:[rax+rax*1+0x0]
    50df:	00 00 00 00 
    50e3:	66 66 2e 0f 1f 84 00 	data16 nop WORD PTR cs:[rax+rax*1+0x0]
    50ea:	00 00 00 00 
    50ee:	66 66 2e 0f 1f 84 00 	data16 nop WORD PTR cs:[rax+rax*1+0x0]
    50f5:	00 00 00 00 
    50f9:	66 66 2e 0f 1f 84 00 	data16 nop WORD PTR cs:[rax+rax*1+0x0]
    5100:	00 00 00 00 
    5104:	66 66 2e 0f 1f 84 00 	data16 nop WORD PTR cs:[rax+rax*1+0x0]
    510b:	00 00 00 00 
    510f:	66 66 2e 0f 1f 84 00 	data16 nop WORD PTR cs:[rax+rax*1+0x0]
    5116:	00 00 00 00 
    511a:	66 66 2e 0f 1f 84 00 	data16 nop WORD PTR cs:[rax+rax*1+0x0]
    5121:	00 00 00 00 
    5125:	66 66 2e 0f 1f 84 00 	data16 nop WORD PTR cs:[rax+rax*1+0x0]
    512c:	00 00 00 00 
    5130:	66 66 2e 0f 1f 84 00 	data16 nop WORD PTR cs:[rax+rax*1+0x0]
    5137:	00 00 00 00 
    513b:	66 66 2e 0f 1f 84 00 	data16 nop WORD PTR cs:[rax+rax*1+0x0]
    5142:	00 00 00 00 
    5146:	66 66 2e 0f 1f 84 00 	data16 nop WORD PTR cs:[rax+rax*1+0x0]
    514d:	00 00 00 00 
    5151:	66 66 2e 0f 1f 84 00 	data16 nop WORD PTR cs:[rax+rax*1+0x0]
    5158:	00 00 00 00 
    515c:	66 66 2e 0f 1f 84 00 	data16 nop WORD PTR cs:[rax+rax*1+0x0]
    5163:	00 00 00 00 
    5167:	66 66 2e 0f 1f 84 00 	data16 nop WORD PTR cs:[rax+rax*1+0x0]
    516e:	00 00 00 00 
    5172:	66 66 2e 0f 1f 84 00 	data16 nop WORD PTR cs:[rax+rax*1+0x0]
    5179:	00 00 00 00 
    517d:	66 66 2e 0f 1f 84 00 	data16 nop WORD PTR cs:[rax+rax*1+0x0]
    5184:	00 00 00 00 
    5188:	66 66 2e 0f 1f 84 00 	data16 nop WORD PTR cs:[rax+rax*1+0x0]
    518f:	00 00 00 00 
    5193:	66 66 2e 0f 1f 84 00 	data16 nop WORD PTR cs:[rax+rax*1+0x0]
    519a:	00 00 00 00 
    519e:	66 66 2e 0f 1f 84 00 	data16 nop WORD PTR cs:[rax+rax*1+0x0]
    51a5:	00 00 00 00 
    51a9:	66 66 2e 0f 1f 84 00 	data16 nop WORD PTR cs:[rax+rax*1+0x0]
    51b0:	00 00 00 00 
    51b4:	66 66 2e 0f 1f 84 00 	data16 nop WORD PTR cs:[rax+rax*1+0x0]
    51bb:	00 00 00 00 
    51bf:	66 66 2e 0f 1f 84 00 	data16 nop WORD PTR cs:[rax+rax*1+0x0]
    51c6:	00 00 00 00 
    51ca:	66 66 2e 0f 1f 84 00 	data16 nop WORD PTR cs:[rax+rax*1+0x0]
    51d1:	00 00 00 00 
    51d5:	66 66 2e 0f 1f 84 00 	data16 nop WORD PTR cs:[rax+rax*1+0x0]
    51dc:	00 00 00 00 
    51e0:	66 66 2e 0f 1f 84 00 	data16 nop WORD PTR cs:[rax+rax*1+0x0]
    51e7:	00 00 00 00 
    51eb:	66 66 2e 0f 1f 84 00 	data16 nop WORD PTR cs:[rax+rax*1+0x0]
    51f2:	00 00 00 00 
    51f6:	66 2e 0f 1f 84 00 00 	nop    WORD PTR cs:[rax+rax*1+0x0]
    51fd:	00 00 00 

0000000000005200 <function_32()>:

void function_32()
{
    5200:	f3 0f 1e fa          	endbr64 
    5204:	55                   	push   rbp
    5205:	48 89 e5             	mov    rbp,rsp
    int i = 0;
    5208:	c7 45 fc 00 00 00 00 	mov    DWORD PTR [rbp-0x4],0x0
    for (int j = 0; j < 10; j++)
    520f:	c7 45 f8 00 00 00 00 	mov    DWORD PTR [rbp-0x8],0x0
    5216:	83 7d f8 09          	cmp    DWORD PTR [rbp-0x8],0x9
    521a:	7f 0f                	jg     522b <function_32()+0x2b>
    {
        i = j + 1;
    521c:	8b 45 f8             	mov    eax,DWORD PTR [rbp-0x8]
    521f:	83 c0 01             	add    eax,0x1
    5222:	89 45 fc             	mov    DWORD PTR [rbp-0x4],eax
    for (int j = 0; j < 10; j++)
    5225:	83 45 f8 01          	add    DWORD PTR [rbp-0x8],0x1
    5229:	eb eb                	jmp    5216 <function_32()+0x16>
    }
}
    522b:	90                   	nop
    522c:	5d                   	pop    rbp
    522d:	c3                   	ret    
    522e:	e9 cd 01 00 00       	jmp    5400 <main>
    5233:	66 66 2e 0f 1f 84 00 	data16 nop WORD PTR cs:[rax+rax*1+0x0]
    523a:	00 00 00 00 
    523e:	66 66 2e 0f 1f 84 00 	data16 nop WORD PTR cs:[rax+rax*1+0x0]
    5245:	00 00 00 00 
    5249:	66 66 2e 0f 1f 84 00 	data16 nop WORD PTR cs:[rax+rax*1+0x0]
    5250:	00 00 00 00 
    5254:	66 66 2e 0f 1f 84 00 	data16 nop WORD PTR cs:[rax+rax*1+0x0]
    525b:	00 00 00 00 
    525f:	66 66 2e 0f 1f 84 00 	data16 nop WORD PTR cs:[rax+rax*1+0x0]
    5266:	00 00 00 00 
    526a:	66 66 2e 0f 1f 84 00 	data16 nop WORD PTR cs:[rax+rax*1+0x0]
    5271:	00 00 00 00 
    5275:	66 66 2e 0f 1f 84 00 	data16 nop WORD PTR cs:[rax+rax*1+0x0]
    527c:	00 00 00 00 
    5280:	66 66 2e 0f 1f 84 00 	data16 nop WORD PTR cs:[rax+rax*1+0x0]
    5287:	00 00 00 00 
    528b:	66 66 2e 0f 1f 84 00 	data16 nop WORD PTR cs:[rax+rax*1+0x0]
    5292:	00 00 00 00 
    5296:	66 66 2e 0f 1f 84 00 	data16 nop WORD PTR cs:[rax+rax*1+0x0]
    529d:	00 00 00 00 
    52a1:	66 66 2e 0f 1f 84 00 	data16 nop WORD PTR cs:[rax+rax*1+0x0]
    52a8:	00 00 00 00 
    52ac:	66 66 2e 0f 1f 84 00 	data16 nop WORD PTR cs:[rax+rax*1+0x0]
    52b3:	00 00 00 00 
    52b7:	66 66 2e 0f 1f 84 00 	data16 nop WORD PTR cs:[rax+rax*1+0x0]
    52be:	00 00 00 00 
    52c2:	66 66 2e 0f 1f 84 00 	data16 nop WORD PTR cs:[rax+rax*1+0x0]
    52c9:	00 00 00 00 
    52cd:	66 66 2e 0f 1f 84 00 	data16 nop WORD PTR cs:[rax+rax*1+0x0]
    52d4:	00 00 00 00 
    52d8:	66 66 2e 0f 1f 84 00 	data16 nop WORD PTR cs:[rax+rax*1+0x0]
    52df:	00 00 00 00 
    52e3:	66 66 2e 0f 1f 84 00 	data16 nop WORD PTR cs:[rax+rax*1+0x0]
    52ea:	00 00 00 00 
    52ee:	66 66 2e 0f 1f 84 00 	data16 nop WORD PTR cs:[rax+rax*1+0x0]
    52f5:	00 00 00 00 
    52f9:	66 66 2e 0f 1f 84 00 	data16 nop WORD PTR cs:[rax+rax*1+0x0]
    5300:	00 00 00 00 
    5304:	66 66 2e 0f 1f 84 00 	data16 nop WORD PTR cs:[rax+rax*1+0x0]
    530b:	00 00 00 00 
    530f:	66 66 2e 0f 1f 84 00 	data16 nop WORD PTR cs:[rax+rax*1+0x0]
    5316:	00 00 00 00 
    531a:	66 66 2e 0f 1f 84 00 	data16 nop WORD PTR cs:[rax+rax*1+0x0]
    5321:	00 00 00 00 
    5325:	66 66 2e 0f 1f 84 00 	data16 nop WORD PTR cs:[rax+rax*1+0x0]
    532c:	00 00 00 00 
    5330:	66 66 2e 0f 1f 84 00 	data16 nop WORD PTR cs:[rax+rax*1+0x0]
    5337:	00 00 00 00 
    533b:	66 66 2e 0f 1f 84 00 	data16 nop WORD PTR cs:[rax+rax*1+0x0]
    5342:	00 00 00 00 
    5346:	66 66 2e 0f 1f 84 00 	data16 nop WORD PTR cs:[rax+rax*1+0x0]
    534d:	00 00 00 00 
    5351:	66 66 2e 0f 1f 84 00 	data16 nop WORD PTR cs:[rax+rax*1+0x0]
    5358:	00 00 00 00 
    535c:	66 66 2e 0f 1f 84 00 	data16 nop WORD PTR cs:[rax+rax*1+0x0]
    5363:	00 00 00 00 
    5367:	66 66 2e 0f 1f 84 00 	data16 nop WORD PTR cs:[rax+rax*1+0x0]
    536e:	00 00 00 00 
    5372:	66 66 2e 0f 1f 84 00 	data16 nop WORD PTR cs:[rax+rax*1+0x0]
    5379:	00 00 00 00 
    537d:	66 66 2e 0f 1f 84 00 	data16 nop WORD PTR cs:[rax+rax*1+0x0]
    5384:	00 00 00 00 
    5388:	66 66 2e 0f 1f 84 00 	data16 nop WORD PTR cs:[rax+rax*1+0x0]
    538f:	00 00 00 00 
    5393:	66 66 2e 0f 1f 84 00 	data16 nop WORD PTR cs:[rax+rax*1+0x0]
    539a:	00 00 00 00 
    539e:	66 66 2e 0f 1f 84 00 	data16 nop WORD PTR cs:[rax+rax*1+0x0]
    53a5:	00 00 00 00 
    53a9:	66 66 2e 0f 1f 84 00 	data16 nop WORD PTR cs:[rax+rax*1+0x0]
    53b0:	00 00 00 00 
    53b4:	66 66 2e 0f 1f 84 00 	data16 nop WORD PTR cs:[rax+rax*1+0x0]
    53bb:	00 00 00 00 
    53bf:	66 66 2e 0f 1f 84 00 	data16 nop WORD PTR cs:[rax+rax*1+0x0]
    53c6:	00 00 00 00 
    53ca:	66 66 2e 0f 1f 84 00 	data16 nop WORD PTR cs:[rax+rax*1+0x0]
    53d1:	00 00 00 00 
    53d5:	66 66 2e 0f 1f 84 00 	data16 nop WORD PTR cs:[rax+rax*1+0x0]
    53dc:	00 00 00 00 
    53e0:	66 66 2e 0f 1f 84 00 	data16 nop WORD PTR cs:[rax+rax*1+0x0]
    53e7:	00 00 00 00 
    53eb:	66 66 2e 0f 1f 84 00 	data16 nop WORD PTR cs:[rax+rax*1+0x0]
    53f2:	00 00 00 00 
    53f6:	66 2e 0f 1f 84 00 00 	nop    WORD PTR cs:[rax+rax*1+0x0]
    53fd:	00 00 00 

0000000000005400 <main>:

int main(int argc, char** argv)
{
    5400:	f3 0f 1e fa          	endbr64 
    5404:	55                   	push   rbp
    5405:	48 89 e5             	mov    rbp,rsp
    5408:	48 83 ec 20          	sub    rsp,0x20
    540c:	89 7d ec             	mov    DWORD PTR [rbp-0x14],edi
    540f:	48 89 75 e0          	mov    QWORD PTR [rbp-0x20],rsi
    using namespace std;
    for (int i = 0; i < 10000; i++)
    5413:	c7 45 fc 00 00 00 00 	mov    DWORD PTR [rbp-0x4],0x0
    541a:	81 7d fc 0f 27 00 00 	cmp    DWORD PTR [rbp-0x4],0x270f
    5421:	0f 8f a9 00 00 00    	jg     54d0 <main+0xd0>
    {
        function_1();
    5427:	e8 d4 bf ff ff       	call   1400 <function_1()>
        function_2();
    542c:	e8 cf c1 ff ff       	call   1600 <function_2()>
        function_3();
    5431:	e8 ca c3 ff ff       	call   1800 <function_3()>
        function_4();
    5436:	e8 c5 c5 ff ff       	call   1a00 <function_4()>
        function_5();
    543b:	e8 c0 c7 ff ff       	call   1c00 <function_5()>
        function_6();
    5440:	e8 bb c9 ff ff       	call   1e00 <function_6()>
        function_7();
    5445:	e8 b6 cb ff ff       	call   2000 <function_7()>
        function_8();
    544a:	e8 b1 cd ff ff       	call   2200 <function_8()>
        function_9();
    544f:	e8 ac cf ff ff       	call   2400 <function_9()>
        function_10();
    5454:	e8 a7 d1 ff ff       	call   2600 <function_10()>
        function_11();
    5459:	e8 a2 d3 ff ff       	call   2800 <function_11()>
        function_12();
    545e:	e8 9d d5 ff ff       	call   2a00 <function_12()>
        function_13();
    5463:	e8 98 d7 ff ff       	call   2c00 <function_13()>
        function_14();
    5468:	e8 93 d9 ff ff       	call   2e00 <function_14()>
        function_15();
    546d:	e8 8e db ff ff       	call   3000 <function_15()>
        function_16();
    5472:	e8 89 dd ff ff       	call   3200 <function_16()>
        function_17();
    5477:	e8 84 df ff ff       	call   3400 <function_17()>
        function_18();
    547c:	e8 7f e1 ff ff       	call   3600 <function_18()>
        function_19();
    5481:	e8 7a e3 ff ff       	call   3800 <function_19()>
        function_20();
    5486:	e8 75 e5 ff ff       	call   3a00 <function_20()>
        function_21();
    548b:	e8 70 e7 ff ff       	call   3c00 <function_21()>
        function_22();
    5490:	e8 6b e9 ff ff       	call   3e00 <function_22()>
        function_23();
    5495:	e8 66 eb ff ff       	call   4000 <function_23()>
        function_24();
    549a:	e8 61 ed ff ff       	call   4200 <function_24()>
        function_25();
    549f:	e8 5c ef ff ff       	call   4400 <function_25()>
        function_26();
    54a4:	e8 57 f1 ff ff       	call   4600 <function_26()>
        function_27();
    54a9:	e8 52 f3 ff ff       	call   4800 <function_27()>
        function_28();
    54ae:	e8 4d f5 ff ff       	call   4a00 <function_28()>
        function_29();
    54b3:	e8 48 f7 ff ff       	call   4c00 <function_29()>
        function_30();
    54b8:	e8 43 f9 ff ff       	call   4e00 <function_30()>
        function_31();
    54bd:	e8 3e fb ff ff       	call   5000 <function_31()>
        function_32();
    54c2:	e8 39 fd ff ff       	call   5200 <function_32()>
    for (int i = 0; i < 10000; i++)
    54c7:	83 45 fc 01          	add    DWORD PTR [rbp-0x4],0x1
    54cb:	e9 4a ff ff ff       	jmp    541a <main+0x1a>
    }
    return 0;
    54d0:	b8 00 00 00 00       	mov    eax,0x0
    54d5:	c9                   	leave  
    54d6:	c3                   	ret    
    54d7:	e9 24 01 00 00       	jmp    5600 <__static_initialization_and_destruction_0(int, int)>
    54dc:	66 66 2e 0f 1f 84 00 	data16 nop WORD PTR cs:[rax+rax*1+0x0]
    54e3:	00 00 00 00 
    54e7:	66 66 2e 0f 1f 84 00 	data16 nop WORD PTR cs:[rax+rax*1+0x0]
    54ee:	00 00 00 00 
    54f2:	66 66 2e 0f 1f 84 00 	data16 nop WORD PTR cs:[rax+rax*1+0x0]
    54f9:	00 00 00 00 
    54fd:	66 66 2e 0f 1f 84 00 	data16 nop WORD PTR cs:[rax+rax*1+0x0]
    5504:	00 00 00 00 
    5508:	66 66 2e 0f 1f 84 00 	data16 nop WORD PTR cs:[rax+rax*1+0x0]
    550f:	00 00 00 00 
    5513:	66 66 2e 0f 1f 84 00 	data16 nop WORD PTR cs:[rax+rax*1+0x0]
    551a:	00 00 00 00 
    551e:	66 66 2e 0f 1f 84 00 	data16 nop WORD PTR cs:[rax+rax*1+0x0]
    5525:	00 00 00 00 
    5529:	66 66 2e 0f 1f 84 00 	data16 nop WORD PTR cs:[rax+rax*1+0x0]
    5530:	00 00 00 00 
    5534:	66 66 2e 0f 1f 84 00 	data16 nop WORD PTR cs:[rax+rax*1+0x0]
    553b:	00 00 00 00 
    553f:	66 66 2e 0f 1f 84 00 	data16 nop WORD PTR cs:[rax+rax*1+0x0]
    5546:	00 00 00 00 
    554a:	66 66 2e 0f 1f 84 00 	data16 nop WORD PTR cs:[rax+rax*1+0x0]
    5551:	00 00 00 00 
    5555:	66 66 2e 0f 1f 84 00 	data16 nop WORD PTR cs:[rax+rax*1+0x0]
    555c:	00 00 00 00 
    5560:	66 66 2e 0f 1f 84 00 	data16 nop WORD PTR cs:[rax+rax*1+0x0]
    5567:	00 00 00 00 
    556b:	66 66 2e 0f 1f 84 00 	data16 nop WORD PTR cs:[rax+rax*1+0x0]
    5572:	00 00 00 00 
    5576:	66 66 2e 0f 1f 84 00 	data16 nop WORD PTR cs:[rax+rax*1+0x0]
    557d:	00 00 00 00 
    5581:	66 66 2e 0f 1f 84 00 	data16 nop WORD PTR cs:[rax+rax*1+0x0]
    5588:	00 00 00 00 
    558c:	66 66 2e 0f 1f 84 00 	data16 nop WORD PTR cs:[rax+rax*1+0x0]
    5593:	00 00 00 00 
    5597:	66 66 2e 0f 1f 84 00 	data16 nop WORD PTR cs:[rax+rax*1+0x0]
    559e:	00 00 00 00 
    55a2:	66 66 2e 0f 1f 84 00 	data16 nop WORD PTR cs:[rax+rax*1+0x0]
    55a9:	00 00 00 00 
    55ad:	66 66 2e 0f 1f 84 00 	data16 nop WORD PTR cs:[rax+rax*1+0x0]
    55b4:	00 00 00 00 
    55b8:	66 66 2e 0f 1f 84 00 	data16 nop WORD PTR cs:[rax+rax*1+0x0]
    55bf:	00 00 00 00 
    55c3:	66 66 2e 0f 1f 84 00 	data16 nop WORD PTR cs:[rax+rax*1+0x0]
    55ca:	00 00 00 00 
    55ce:	66 66 2e 0f 1f 84 00 	data16 nop WORD PTR cs:[rax+rax*1+0x0]
    55d5:	00 00 00 00 
    55d9:	66 66 2e 0f 1f 84 00 	data16 nop WORD PTR cs:[rax+rax*1+0x0]
    55e0:	00 00 00 00 
    55e4:	66 66 2e 0f 1f 84 00 	data16 nop WORD PTR cs:[rax+rax*1+0x0]
    55eb:	00 00 00 00 
    55ef:	66 66 2e 0f 1f 84 00 	data16 nop WORD PTR cs:[rax+rax*1+0x0]
    55f6:	00 00 00 00 
    55fa:	66 0f 1f 44 00 00    	nop    WORD PTR [rax+rax*1+0x0]

0000000000005600 <__static_initialization_and_destruction_0(int, int)>:
    5600:	f3 0f 1e fa          	endbr64 
    5604:	55                   	push   rbp
    5605:	48 89 e5             	mov    rbp,rsp
    5608:	48 83 ec 10          	sub    rsp,0x10
    560c:	89 7d fc             	mov    DWORD PTR [rbp-0x4],edi
    560f:	89 75 f8             	mov    DWORD PTR [rbp-0x8],esi
    5612:	83 7d fc 01          	cmp    DWORD PTR [rbp-0x4],0x1
    5616:	75 32                	jne    564a <__static_initialization_and_destruction_0(int, int)+0x4a>
    5618:	81 7d f8 ff ff 00 00 	cmp    DWORD PTR [rbp-0x8],0xffff
    561f:	75 29                	jne    564a <__static_initialization_and_destruction_0(int, int)+0x4a>
  extern wostream wclog;	/// Linked to standard error (buffered)
#endif
  ///@}

  // For construction of filebuffers for cout, cin, cerr, clog et. al.
  static ios_base::Init __ioinit;
    5621:	48 8d 3d e9 29 00 00 	lea    rdi,[rip+0x29e9]        # 8011 <std::__ioinit>
    5628:	e8 43 ba ff ff       	call   1070 <std::ios_base::Init::Init()@plt>
    562d:	48 8d 15 d4 29 00 00 	lea    rdx,[rip+0x29d4]        # 8008 <__dso_handle>
    5634:	48 8d 35 d6 29 00 00 	lea    rsi,[rip+0x29d6]        # 8011 <std::__ioinit>
    563b:	48 8b 05 b6 29 00 00 	mov    rax,QWORD PTR [rip+0x29b6]        # 7ff8 <std::ios_base::Init::~Init()@GLIBCXX_3.4>
    5642:	48 89 c7             	mov    rdi,rax
    5645:	e8 16 ba ff ff       	call   1060 <__cxa_atexit@plt>
    564a:	90                   	nop
    564b:	c9                   	leave  
    564c:	c3                   	ret    
    564d:	e9 ae 01 00 00       	jmp    5800 <_GLOBAL__sub_I__Z10function_1v>
    5652:	66 66 2e 0f 1f 84 00 	data16 nop WORD PTR cs:[rax+rax*1+0x0]
    5659:	00 00 00 00 
    565d:	66 66 2e 0f 1f 84 00 	data16 nop WORD PTR cs:[rax+rax*1+0x0]
    5664:	00 00 00 00 
    5668:	66 66 2e 0f 1f 84 00 	data16 nop WORD PTR cs:[rax+rax*1+0x0]
    566f:	00 00 00 00 
    5673:	66 66 2e 0f 1f 84 00 	data16 nop WORD PTR cs:[rax+rax*1+0x0]
    567a:	00 00 00 00 
    567e:	66 66 2e 0f 1f 84 00 	data16 nop WORD PTR cs:[rax+rax*1+0x0]
    5685:	00 00 00 00 
    5689:	66 66 2e 0f 1f 84 00 	data16 nop WORD PTR cs:[rax+rax*1+0x0]
    5690:	00 00 00 00 
    5694:	66 66 2e 0f 1f 84 00 	data16 nop WORD PTR cs:[rax+rax*1+0x0]
    569b:	00 00 00 00 
    569f:	66 66 2e 0f 1f 84 00 	data16 nop WORD PTR cs:[rax+rax*1+0x0]
    56a6:	00 00 00 00 
    56aa:	66 66 2e 0f 1f 84 00 	data16 nop WORD PTR cs:[rax+rax*1+0x0]
    56b1:	00 00 00 00 
    56b5:	66 66 2e 0f 1f 84 00 	data16 nop WORD PTR cs:[rax+rax*1+0x0]
    56bc:	00 00 00 00 
    56c0:	66 66 2e 0f 1f 84 00 	data16 nop WORD PTR cs:[rax+rax*1+0x0]
    56c7:	00 00 00 00 
    56cb:	66 66 2e 0f 1f 84 00 	data16 nop WORD PTR cs:[rax+rax*1+0x0]
    56d2:	00 00 00 00 
    56d6:	66 66 2e 0f 1f 84 00 	data16 nop WORD PTR cs:[rax+rax*1+0x0]
    56dd:	00 00 00 00 
    56e1:	66 66 2e 0f 1f 84 00 	data16 nop WORD PTR cs:[rax+rax*1+0x0]
    56e8:	00 00 00 00 
    56ec:	66 66 2e 0f 1f 84 00 	data16 nop WORD PTR cs:[rax+rax*1+0x0]
    56f3:	00 00 00 00 
    56f7:	66 66 2e 0f 1f 84 00 	data16 nop WORD PTR cs:[rax+rax*1+0x0]
    56fe:	00 00 00 00 
    5702:	66 66 2e 0f 1f 84 00 	data16 nop WORD PTR cs:[rax+rax*1+0x0]
    5709:	00 00 00 00 
    570d:	66 66 2e 0f 1f 84 00 	data16 nop WORD PTR cs:[rax+rax*1+0x0]
    5714:	00 00 00 00 
    5718:	66 66 2e 0f 1f 84 00 	data16 nop WORD PTR cs:[rax+rax*1+0x0]
    571f:	00 00 00 00 
    5723:	66 66 2e 0f 1f 84 00 	data16 nop WORD PTR cs:[rax+rax*1+0x0]
    572a:	00 00 00 00 
    572e:	66 66 2e 0f 1f 84 00 	data16 nop WORD PTR cs:[rax+rax*1+0x0]
    5735:	00 00 00 00 
    5739:	66 66 2e 0f 1f 84 00 	data16 nop WORD PTR cs:[rax+rax*1+0x0]
    5740:	00 00 00 00 
    5744:	66 66 2e 0f 1f 84 00 	data16 nop WORD PTR cs:[rax+rax*1+0x0]
    574b:	00 00 00 00 
    574f:	66 66 2e 0f 1f 84 00 	data16 nop WORD PTR cs:[rax+rax*1+0x0]
    5756:	00 00 00 00 
    575a:	66 66 2e 0f 1f 84 00 	data16 nop WORD PTR cs:[rax+rax*1+0x0]
    5761:	00 00 00 00 
    5765:	66 66 2e 0f 1f 84 00 	data16 nop WORD PTR cs:[rax+rax*1+0x0]
    576c:	00 00 00 00 
    5770:	66 66 2e 0f 1f 84 00 	data16 nop WORD PTR cs:[rax+rax*1+0x0]
    5777:	00 00 00 00 
    577b:	66 66 2e 0f 1f 84 00 	data16 nop WORD PTR cs:[rax+rax*1+0x0]
    5782:	00 00 00 00 
    5786:	66 66 2e 0f 1f 84 00 	data16 nop WORD PTR cs:[rax+rax*1+0x0]
    578d:	00 00 00 00 
    5791:	66 66 2e 0f 1f 84 00 	data16 nop WORD PTR cs:[rax+rax*1+0x0]
    5798:	00 00 00 00 
    579c:	66 66 2e 0f 1f 84 00 	data16 nop WORD PTR cs:[rax+rax*1+0x0]
    57a3:	00 00 00 00 
    57a7:	66 66 2e 0f 1f 84 00 	data16 nop WORD PTR cs:[rax+rax*1+0x0]
    57ae:	00 00 00 00 
    57b2:	66 66 2e 0f 1f 84 00 	data16 nop WORD PTR cs:[rax+rax*1+0x0]
    57b9:	00 00 00 00 
    57bd:	66 66 2e 0f 1f 84 00 	data16 nop WORD PTR cs:[rax+rax*1+0x0]
    57c4:	00 00 00 00 
    57c8:	66 66 2e 0f 1f 84 00 	data16 nop WORD PTR cs:[rax+rax*1+0x0]
    57cf:	00 00 00 00 
    57d3:	66 66 2e 0f 1f 84 00 	data16 nop WORD PTR cs:[rax+rax*1+0x0]
    57da:	00 00 00 00 
    57de:	66 66 2e 0f 1f 84 00 	data16 nop WORD PTR cs:[rax+rax*1+0x0]
    57e5:	00 00 00 00 
    57e9:	66 66 2e 0f 1f 84 00 	data16 nop WORD PTR cs:[rax+rax*1+0x0]
    57f0:	00 00 00 00 
    57f4:	66 66 2e 0f 1f 84 00 	data16 nop WORD PTR cs:[rax+rax*1+0x0]
    57fb:	00 00 00 00 
    57ff:	90                   	nop

0000000000005800 <_GLOBAL__sub_I__Z10function_1v>:
    5800:	f3 0f 1e fa          	endbr64 
    5804:	55                   	push   rbp
    5805:	48 89 e5             	mov    rbp,rsp
    5808:	be ff ff 00 00       	mov    esi,0xffff
    580d:	bf 01 00 00 00       	mov    edi,0x1
    5812:	e8 e9 fd ff ff       	call   5600 <__static_initialization_and_destruction_0(int, int)>
    5817:	5d                   	pop    rbp
    5818:	c3                   	ret    
    5819:	0f 1f 80 00 00 00 00 	nop    DWORD PTR [rax+0x0]

0000000000005820 <__libc_csu_init>:
    5820:	f3 0f 1e fa          	endbr64 
    5824:	41 57                	push   r15
    5826:	4c 8d 3d 63 25 00 00 	lea    r15,[rip+0x2563]        # 7d90 <__frame_dummy_init_array_entry>
    582d:	41 56                	push   r14
    582f:	49 89 d6             	mov    r14,rdx
    5832:	41 55                	push   r13
    5834:	49 89 f5             	mov    r13,rsi
    5837:	41 54                	push   r12
    5839:	41 89 fc             	mov    r12d,edi
    583c:	55                   	push   rbp
    583d:	48 8d 2d 5c 25 00 00 	lea    rbp,[rip+0x255c]        # 7da0 <__do_global_dtors_aux_fini_array_entry>
    5844:	53                   	push   rbx
    5845:	4c 29 fd             	sub    rbp,r15
    5848:	48 83 ec 08          	sub    rsp,0x8
    584c:	e8 af b7 ff ff       	call   1000 <_init>
    5851:	48 c1 fd 03          	sar    rbp,0x3
    5855:	74 1f                	je     5876 <__libc_csu_init+0x56>
    5857:	31 db                	xor    ebx,ebx
    5859:	0f 1f 80 00 00 00 00 	nop    DWORD PTR [rax+0x0]
    5860:	4c 89 f2             	mov    rdx,r14
    5863:	4c 89 ee             	mov    rsi,r13
    5866:	44 89 e7             	mov    edi,r12d
    5869:	41 ff 14 df          	call   QWORD PTR [r15+rbx*8]
    586d:	48 83 c3 01          	add    rbx,0x1
    5871:	48 39 dd             	cmp    rbp,rbx
    5874:	75 ea                	jne    5860 <__libc_csu_init+0x40>
    5876:	48 83 c4 08          	add    rsp,0x8
    587a:	5b                   	pop    rbx
    587b:	5d                   	pop    rbp
    587c:	41 5c                	pop    r12
    587e:	41 5d                	pop    r13
    5880:	41 5e                	pop    r14
    5882:	41 5f                	pop    r15
    5884:	c3                   	ret    
    5885:	66 66 2e 0f 1f 84 00 	data16 nop WORD PTR cs:[rax+rax*1+0x0]
    588c:	00 00 00 00 

0000000000005890 <__libc_csu_fini>:
    5890:	f3 0f 1e fa          	endbr64 
    5894:	c3                   	ret    

Disassembly of section .fini:

0000000000005898 <_fini>:
    5898:	f3 0f 1e fa          	endbr64 
    589c:	48 83 ec 08          	sub    rsp,0x8
    58a0:	48 83 c4 08          	add    rsp,0x8
    58a4:	c3                   	ret    
